
./build/secure/arch/cortex-m33/lpc/src/lpc55s69/secure/bl32.elf:     file format elf32-littlearm
./build/secure/arch/cortex-m33/lpc/src/lpc55s69/secure/bl32.elf
architecture: armv8-m.main, flags 0x00000112:
EXEC_P, HAS_SYMS, D_PAGED
start address 0x00020001

Program Header:
0x70000001 off    0x000161ac vaddr 0x000351ac paddr 0x000351ac align 2**2
         filesz 0x00000008 memsz 0x00000008 flags r--
    LOAD off    0x00001000 vaddr 0x00020000 paddr 0x00020000 align 2**12
         filesz 0x000151b4 memsz 0x000151b4 flags r-x
    LOAD off    0x00017000 vaddr 0x20010000 paddr 0x000351c0 align 2**12
         filesz 0x000006fc memsz 0x00004bb0 flags rw-
private flags = 0x5000200: [Version5 EABI] [soft-float ABI]

Sections:
Idx Name          Size      VMA       LMA       File off  Algn
  0 .start        00000088  00020000  00020000  00001000  2**2
                  CONTENTS, ALLOC, LOAD, READONLY, CODE
  1 .text         0000ee40  00021000  00021000  00002000  2**12
                  CONTENTS, ALLOC, LOAD, READONLY, CODE
  2 .rodata       0000536c  0002fe40  0002fe40  00010e40  2**3
                  CONTENTS, ALLOC, LOAD, READONLY, DATA
  3 .ARM.exidx    00000008  000351ac  000351ac  000161ac  2**2
                  CONTENTS, ALLOC, LOAD, READONLY, DATA
  4 .data         000006fc  20010000  000351c0  00017000  2**3
                  CONTENTS, ALLOC, LOAD, DATA
  5 .bss          000044b4  200106fc  000358bc  000176fc  2**2
                  ALLOC
  6 .ARM.attributes 00000032  00000000  00000000  000176fc  2**0
                  CONTENTS, READONLY
  7 .comment      00000045  00000000  00000000  0001772e  2**0
                  CONTENTS, READONLY
  8 .debug_line   0000f581  00000000  00000000  00017773  2**0
                  CONTENTS, READONLY, DEBUGGING, OCTETS
  9 .debug_info   000155e3  00000000  00000000  00026cf4  2**0
                  CONTENTS, READONLY, DEBUGGING, OCTETS
 10 .debug_abbrev 00003d38  00000000  00000000  0003c2d7  2**0
                  CONTENTS, READONLY, DEBUGGING, OCTETS
 11 .debug_aranges 000008c8  00000000  00000000  00040010  2**3
                  CONTENTS, READONLY, DEBUGGING, OCTETS
 12 .debug_str    0001bc2d  00000000  00000000  000408d8  2**0
                  CONTENTS, READONLY, DEBUGGING, OCTETS
 13 .debug_loc    0000f75a  00000000  00000000  0005c505  2**0
                  CONTENTS, READONLY, DEBUGGING, OCTETS
 14 .debug_ranges 00000cb0  00000000  00000000  0006bc5f  2**0
                  CONTENTS, READONLY, DEBUGGING, OCTETS
 15 .debug_macro  00007beb  00000000  00000000  0006c90f  2**0
                  CONTENTS, READONLY, DEBUGGING, OCTETS
 16 .debug_frame  00003054  00000000  00000000  000744fc  2**2
                  CONTENTS, READONLY, DEBUGGING, OCTETS
 17 .debug_line_str 000001a5  00000000  00000000  00077550  2**0
                  CONTENTS, READONLY, DEBUGGING, OCTETS
SYMBOL TABLE:
00020000 l    d  .start	00000000 .start
00021000 l    d  .text	00000000 .text
0002fe40 l    d  .rodata	00000000 .rodata
000351ac l    d  .ARM.exidx	00000000 .ARM.exidx
20010000 l    d  .data	00000000 .data
200106fc l    d  .bss	00000000 .bss
00000000 l    d  .ARM.attributes	00000000 .ARM.attributes
00000000 l    d  .comment	00000000 .comment
00000000 l    d  .debug_line	00000000 .debug_line
00000000 l    d  .debug_info	00000000 .debug_info
00000000 l    d  .debug_abbrev	00000000 .debug_abbrev
00000000 l    d  .debug_aranges	00000000 .debug_aranges
00000000 l    d  .debug_str	00000000 .debug_str
00000000 l    d  .debug_loc	00000000 .debug_loc
00000000 l    d  .debug_ranges	00000000 .debug_ranges
00000000 l    d  .debug_macro	00000000 .debug_macro
00000000 l    d  .debug_frame	00000000 .debug_frame
00000000 l    d  .debug_line_str	00000000 .debug_line_str
00000000 l    df *ABS*	00000000 start.o
00000000 l    df *ABS*	00000000 exceptions.o
00000000 l    df *ABS*	00000000 irq.c
00000000 l    df *ABS*	00000000 retarget.c
20010000 l     O .data	00000004 heap_end.0
20010868 l     O .bss	00000008 init_lock
20010870 l     O .bss	00000001 init_done
00000000 l    df *ABS*	00000000 lpc55s69.c
00000000 l    df *ABS*	00000000 lpc_uart.c
00000000 l    df *ABS*	00000000 init.c
00000000 l    df *ABS*	00000000 main.c
00000000 l    df *ABS*	00000000 hello_world_ta.c
000303e0 l     O .rodata	00000025 __FUNCTION__.3
000303b8 l     O .rodata	00000026 __FUNCTION__.2
000303ac l     O .rodata	0000000a __FUNCTION__.1
000303a0 l     O .rodata	0000000a __FUNCTION__.0
00035180 l     O .rodata	0000002c __head
00000000 l    df *ABS*	00000000 tee_api.c
00000000 l    df *ABS*	00000000 tee_user_mem.c
00030408 l     O .rodata	00000013 __FUNCTION__.0
00000000 l    df *ABS*	00000000 trace.c
0003041c l     O .rodata	00000005 lvl_strs.0
00000000 l    df *ABS*	00000000 mempool.c
00000000 l    df *ABS*	00000000 tee_svc_cryp.c
000216c8 l     F .text	00000014 op_attr_value_from_user
000216dc l     F .text	00000008 op_attr_value_from_obj
000216e4 l     F .text	00000006 op_attr_value_clear
000216ec l     F .text	00000024 tee_svc_find_type_props
0003048c l     O .rodata	000000b0 tee_cryp_obj_props
00021710 l     F .text	0000000a op_attr_bignum_clear
0002171a l     F .text	00000010 op_attr_bignum_free
0002172a l     F .text	0000000e op_attr_bignum_from_obj
00021738 l     F .text	00000010 op_attr_bignum_from_user
00021748 l     F .text	00000046 op_attr_bignum_from_binary
00021790 l     F .text	00000064 op_attr_bignum_to_binary
000217f4 l     F .text	00000064 op_attr_bignum_to_user
00021858 l     F .text	0000005c op_attr_secret_value_to_user
000218b4 l     F .text	00000012 op_attr_secret_value_clear
000218c8 l     F .text	00000028 op_attr_secret_value_from_obj
000218f0 l     F .text	00000020 op_attr_secret_value_from_user
00021910 l     F .text	000000a0 cryp_state_free
00030428 l     O .rodata	00000010 __func__.0
000219b0 l     F .text	0000004a op_attr_secret_value_from_binary
000219fc l     F .text	00000054 op_attr_secret_value_to_binary
00030438 l     O .rodata	00000054 attr_ops
0003056c l     O .rodata	0000000c tee_cryp_obj_secret_value_attrs
0003053c l     O .rodata	00000030 tee_cryp_obj_ecc_keypair_attrs
00000000 l    df *ABS*	00000000 tee_cryp_utl.c
00000000 l    df *ABS*	00000000 tee_svc.c
00000000 l    df *ABS*	00000000 tee_obj.c
00000000 l    df *ABS*	00000000 tee_pobj.c
20010010 l     O .data	00000008 tee_pobjs
00000000 l    df *ABS*	00000000 uuid.c
00000000 l    df *ABS*	00000000 entry_std.c
00000000 l    df *ABS*	00000000 pseudo_ta.c
00021dd0 l     F .text	0000003e update_out_param
00021e0e l     F .text	0000000a pseudo_ta_destroy
00021e18 l     F .text	0000001c pseudo_ta_enter_close_session
00021e34 l     F .text	00000058 copy_in_param
00021e8c l     F .text	0000005a pseudo_ta_enter_invoke_cmd
00021ee6 l     F .text	00000064 pseudo_ta_enter_open_session
00030578 l     O .rodata	0000001e __FUNCTION__.0
00030598 l     O .rodata	00000018 pseudo_ta_ops
00000000 l    df *ABS*	00000000 user_ta.c
0002203c l     F .text	00000054 user_ta_enter_invoke_cmd
000305b0 l     O .rodata	0000000f __func__.0
00022090 l     F .text	00000054 user_ta_ctx_destroy
000220e4 l     F .text	0000003c user_ta_enter_close_session
00022120 l     F .text	00000054 user_ta_enter_open_session
000305c0 l     O .rodata	0000001c __FUNCTION__.1
000305dc l     O .rodata	00000018 user_ta_ops
00000000 l    df *ABS*	00000000 tee_ta_manager.c
00030608 l     O .rodata	00000015 __FUNCTION__.1
000305f4 l     O .rodata	00000014 __FUNCTION__.0
00000000 l    df *ABS*	00000000 bignum2.c
0003064c l     O .rodata	00000018 __func__.4
00030634 l     O .rodata	00000015 __func__.1
00030620 l     O .rodata	00000013 __func__.0
00000000 l    df *ABS*	00000000 bignum.c
00030664 l     O .rodata	00000004 memset_func
00000000 l    df *ABS*	00000000 puts.c
00000000 l    df *ABS*	00000000 libc_a-memcpy.o
00000000 l    df *ABS*	00000000 strlen-stub.c
00000000 l    df *ABS*	00000000 findfp.c
000229d8 l     F .text	00000018 stdio_exit_handler
000229f0 l     F .text	00000040 cleanup_stdio
00022a30 l     F .text	000000f0 global_stdio_init.part.0
00000000 l    df *ABS*	00000000 snprintf.c
00000000 l    df *ABS*	00000000 stdio.c
00000000 l    df *ABS*	00000000 malloc.c
00000000 l    df *ABS*	00000000 mallocr.c
00000000 l    df *ABS*	00000000 assert.c
00000000 l    df *ABS*	00000000 sbrkr.c
00000000 l    df *ABS*	00000000 writer.c
00000000 l    df *ABS*	00000000 errno.c
00000000 l    df *ABS*	00000000 vsnprintf.c
00000000 l    df *ABS*	00000000 fvwrite.c
00000000 l    df *ABS*	00000000 fwalk.c
00000000 l    df *ABS*	00000000 wsetup.c
00000000 l    df *ABS*	00000000 mlock.c
00000000 l    df *ABS*	00000000 calloc.c
00000000 l    df *ABS*	00000000 memcmp.c
00000000 l    df *ABS*	00000000 callocr.c
00000000 l    df *ABS*	00000000 memmove.c
00000000 l    df *ABS*	00000000 memset.c
00000000 l    df *ABS*	00000000 lock.c
00000000 l    df *ABS*	00000000 sysconf.c
00000000 l    df *ABS*	00000000 makebuf.c
00000000 l    df *ABS*	00000000 printf.c
00000000 l    df *ABS*	00000000 reallocr.c
00000000 l    df *ABS*	00000000 freer.c
00000000 l    df *ABS*	00000000 closer.c
00000000 l    df *ABS*	00000000 fclose.c
00000000 l    df *ABS*	00000000 fiprintf.c
00000000 l    df *ABS*	00000000 fflush.c
00000000 l    df *ABS*	00000000 memchr-stub.c
00000000 l    df *ABS*	00000000 fstatr.c
00000000 l    df *ABS*	00000000 isattyr.c
00000000 l    df *ABS*	00000000 lseekr.c
00000000 l    df *ABS*	00000000 readr.c
00000000 l    df *ABS*	00000000 svfprintf.c
00030678 l     O .rodata	00000010 blanks.1
00030668 l     O .rodata	00000010 zeroes.0
00000000 l    df *ABS*	00000000 vfprintf.c
00027d88 l     F .text	00000080 __sbprintf
00030698 l     O .rodata	00000010 blanks.1
00030688 l     O .rodata	00000010 zeroes.0
00000000 l    df *ABS*	00000000 vfiprintf.c
00028c78 l     F .text	00000080 __sbprintf
000306a8 l     O .rodata	00000010 zeroes.0
000306b8 l     O .rodata	00000010 blanks.1
00000000 l    df *ABS*	00000000 abort.c
00000000 l    df *ABS*	00000000 wcrtomb.c
00000000 l    df *ABS*	00000000 wcsrtombs.c
00000000 l    df *ABS*	00000000 dtoa.c
00028d70 l     F .text	00000138 quorem
00000000 l    df *ABS*	00000000 locale.c
00000000 l    df *ABS*	00000000 localeconv.c
00000000 l    df *ABS*	00000000 sprint_r.c
00000000 l    df *ABS*	00000000 ssprint_r.c
00000000 l    df *ABS*	00000000 s_frexp.c
00000000 l    df *ABS*	00000000 signal.c
00000000 l    df *ABS*	00000000 wctomb_r.c
00000000 l    df *ABS*	00000000 strncpy.c
00000000 l    df *ABS*	00000000 mbtowc_r.c
00000000 l    df *ABS*	00000000 signalr.c
00000000 l    df *ABS*	00000000 mprec.c
000306c8 l     O .rodata	0000000c p05.0
00000000 l    df *ABS*	00000000 wcsnrtombs.c
00000000 l    df *ABS*	00000000 ssputs_r.c
00000000 l    df *ABS*	00000000 heap_4.c
0002a904 l     F .text	0000005c prvInsertBlockIntoFreeList
20010a10 l     O .bss	00000008 xStart
20010a0c l     O .bss	00000004 pxEnd
200109f8 l     O .bss	00000004 xBlockAllocatedBit
20010a08 l     O .bss	00000004 xFreeBytesRemaining
20010a18 l     O .bss	00004000 ucHeap
20010a04 l     O .bss	00000004 xMinimumEverFreeBytesRemaining
20010a00 l     O .bss	00000004 xNumberOfSuccessfulAllocations
200109fc l     O .bss	00000004 xNumberOfSuccessfulFrees
00000000 l    df *ABS*	00000000 tee_ltc_provider.c
0002aab8 l     F .text	00000004 prng_crypto_start
0002aabc l     F .text	00000004 prng_crypto_add_entropy
0002aac0 l     F .text	00000004 prng_crypto_ready
0002aac4 l     F .text	00000004 prng_crypto_done
0002aac8 l     F .text	00000004 prng_crypto_export
0002aacc l     F .text	00000004 prng_crypto_import
0002aad0 l     F .text	00000004 prng_crypto_test
0002aad4 l     F .text	0000002c hash_get_ctx_size
0002ab3c l     F .text	00000012 prng_crypto_read
000308f8 l     O .rodata	00000015 __func__.6
000308e0 l     O .rodata	00000017 __func__.4
000308cc l     O .rodata	00000014 __func__.1
00030910 l     O .rodata	00000028 prng_crypto_desc
00000000 l    df *ABS*	00000000 aes.c
0002ac24 l     F .text	00000044 setup_mix
00032d60 l     O .rodata	00000400 Te4_1
00033160 l     O .rodata	00000400 Te4_0
00032560 l     O .rodata	00000400 Te4_3
00032960 l     O .rodata	00000400 Te4_2
00030938 l     O .rodata	00000028 rcon
00031560 l     O .rodata	00000400 Tks0
00030960 l     O .rodata	00000400 Tks3
00031160 l     O .rodata	00000400 Tks1
00030d60 l     O .rodata	00000400 Tks2
00034960 l     O .rodata	00000400 TE0
00033560 l     O .rodata	00000400 TE3
00033d60 l     O .rodata	00000400 TE1
00033960 l     O .rodata	00000400 TE2
00034560 l     O .rodata	00000400 TD0
00031960 l     O .rodata	00000400 TD3
00032160 l     O .rodata	00000400 TD1
00031d60 l     O .rodata	00000400 TD2
00034160 l     O .rodata	00000400 Td4
00000000 l    df *ABS*	00000000 crypt_register_cipher.c
00000000 l    df *ABS*	00000000 crypt_register_hash.c
00000000 l    df *ABS*	00000000 sha1.c
0002b958 l     F .text	00000430 sha1_compress
00000000 l    df *ABS*	00000000 sha256.c
0002bf74 l     F .text	000025b4 sha256_compress
00000000 l    df *ABS*	00000000 sha512.c
0002e72c l     F .text	00000b5c sha512_compress
00034e98 l     O .rodata	00000280 K
00000000 l    df *ABS*	00000000 crypt_register_prng.c
00000000 l    df *ABS*	00000000 _arm_addsubdf3.o
00000000 l    df *ABS*	00000000 _arm_muldivdf3.o
00000000 l    df *ABS*	00000000 _arm_cmpdf2.o
00000000 l    df *ABS*	00000000 _arm_unorddf2.o
00000000 l    df *ABS*	00000000 _arm_fixdfsi.o
00000000 l    df *ABS*	00000000 ctype_.c
00000000 l    df *ABS*	00000000 impure.c
00000000 l    df *ABS*	00000000 reent.c
000213e8 g     F .text	00000014 lpc_uart_getc
0002fdc4 g     F .text	0000002c .hidden __aeabi_dcmpun
00021aba g     F .text	0000000a tee_svc_copy_from_user
00024454 g     F .text	00000024 _isatty_r
0002fd88 g     F .text	00000012 .hidden __aeabi_dcmple
00021274 g     F .text	00000004 _getpid
00022290 g     F .text	000000ac tee_ta_close_session
000227e4 g     F .text	0000009c _puts_r
00020058 g       .start	00000000 copy_data
20014bb0 g       .bss	00000000 _stack_base
0002fcc4 g     F .text	0000007a .hidden __cmpdf2
00024478 g     F .text	0000002c _lseek_r
00022560 g     F .text	00000094 mbedtls_mpi_grow
0002fcc4 g     F .text	0000007a .hidden __eqdf2
00021da4 g     F .text	0000002c ioctl
00021b9c g     F .text	00000034 tee_uuid_from_octets
0002f834 g     F .text	0000005a .hidden __floatdidf
00029f7c g     F .text	0000002c _kill_r
000239c8 g     F .text	0000001c sysconf
00023ac0 g     F .text	00000028 printf
000215e4 g     F .text	00000008 tee_user_mem_free
00022174 g     F .text	00000104 tee_ta_init_user_ta_session
00028d08 g     F .text	0000004c _wcrtomb_r
00022c68 g     F .text	00000026 __sseek
00022b20 g     F .text	0000003c __sinit
0002b89c g     F .text	00000004 rijndael_test
00022754 g     F .text	00000090 mbedtls_mpi_write_binary
0002372c g     F .text	0000000c __malloc_unlock
000358bc g       *ABS*	00000000 _data_lma_end
00021d90 g     F .text	00000014 tee_ioctl_close_session
00023814 g     F .text	000000fe memmove
00034e30 g     O .rodata	00000068 sha256_desc
00022b74 g     F .text	00000090 snprintf
00029fac g     F .text	0000004c _Balloc
00021a9c g     F .text	00000016 tee_svc_cryp_free_states
0002fcb4 g     F .text	0000008a .hidden __gtdf2
0002abec g     F .text	00000038 crypto_init
0002329c g     F .text	0000000c __errno
00021b58 g     F .text	00000044 tee_pobj_release
200109b4 g     O .bss	00000004 __stdio_exit_handler
00024428 g     F .text	0000002c _fstat_r
0002e528 g     F .text	00000058 sha256_init
200109f4 g     O .bss	00000004 errno
20010020 g     O .data	00000008 tee_ctxes
0002fd50 g     F .text	00000010 .hidden __aeabi_cdcmple
0002e580 g     F .text	000000ee sha256_done
00021af4 g     F .text	00000014 tee_obj_free
0002ab00 g     F .text	0000003c crypto_rng_improvised
0002e66e g     F .text	00000004 sha256_test
000226bc g     F .text	00000098 mbedtls_mpi_read_binary
000215ec g     F .text	000000c8 trace_printf
000211bc g     F .text	00000000 _systick_handler
00022890 g     F .text	000000ec memcpy
0002fd40 g     F .text	00000020 .hidden __aeabi_cdrcmple
0002b91c g     F .text	0000003c register_hash
000244d0 g     F .text	00001c3c _svfprintf_r
0002f7bc g     F .text	00000022 .hidden __floatsidf
0002fcbc g     F .text	00000082 .hidden __ltdf2
00022880 g     F .text	00000010 puts
0002aa74 g     F .text	00000044 vPortFree
000351ac g       .rodata	00000000 __rodata_end
00021ad0 g     F .text	00000024 tee_obj_get
0002b454 g     F .text	00000448 rijndael_ecb_decrypt
000211c8 g     F .text	00000018 irq_handle
00022c98 g     F .text	00000010 malloc
00021244 g     F .text	0000000a _fstat
00023210 g     F .text	0000003c __assert_func
00030700 g     O .rodata	000000c8 __mprec_tens
000232a8 g     F .text	00000078 vsnprintf
2001000c g     O .data	00000004 trace_level
200109e8 g     O .bss	00000004 __malloc_top_pad
00034dc8 g     O .rodata	00000068 sha1_desc
00029fa8 g     F .text	00000004 _getpid_r
0002f79c g     F .text	0000001e .hidden __aeabi_ui2d
00029d8c g     F .text	00000008 _localeconv_r
0002a158 g     F .text	0000005c __i2b
00023320 g     F .text	000002f8 __sfvwrite_r
000216be g     F .text	0000000a mempool_free
0002f518 g     F .text	00000000 .hidden __aeabi_drsub
0002324c g     F .text	00000024 _sbrk_r
20018bb0 g       .bss	00000000 _heap_base
0002266a g     F .text	00000046 mbedtls_mpi_bitlen
00030424 g     O .rodata	00000003 trace_ext_prefix
000244a4 g     F .text	0000002c _read_r
0002fd74 g     F .text	00000012 .hidden __aeabi_dcmplt
0002412c g     F .text	000000c0 _fclose_r
0002beba g     F .text	000000b8 sha1_process
200109e4 g     O .bss	00000004 __malloc_max_sbrked_mem
0002f7e0 g     F .text	00000042 .hidden __extendsfdf2
0002fae4 g     F .text	000001d0 .hidden __aeabi_ddiv
00021a50 g     F .text	0000004c tee_obj_attr_free
0002bd88 g     F .text	00000040 sha1_init
0002f524 g     F .text	00000276 .hidden __adddf3
0002f890 g     F .text	00000254 .hidden __aeabi_dmul
0002124e g     F .text	0000000e _isatty
0002b8d4 g     F .text	00000048 register_cipher
00023ae8 g     F .text	0000036e _realloc_r
20014bb0 g       .bss	00000000 __bss_end
000306d8 g     O .rodata	00000028 __mprec_bigtens
00028cf8 g     F .text	0000000e abort
0002f79c g     F .text	0000001e .hidden __floatunsidf
0002125c g     F .text	00000010 _sbrk
0002a4b4 g     F .text	0000003e __mcmp
0002a960 g     F .text	00000114 pvPortMalloc
00021288  w    F .text	0000005c _init
00021c18 g     F .text	00000178 tee_ioctl_invoke
0002beb6 g     F .text	00000004 sha1_test
000351ac g       .rodata	00000000 __stop_ta_head_section
000216b4 g     F .text	0000000a mempool_alloc
00035118 g     O .rodata	00000068 sha512_desc
20014aa0 g     O .bss	00000088 hash_descriptor
0002a0b0 g     F .text	00000046 __hi0bits
0002fdf0 g     F .text	0000004e .hidden __fixdfsi
00023738 g     F .text	00000010 calloc
00021588 g     F .text	00000008 TEE_Malloc
200109ec g     O .bss	00000001 __lock___malloc_recursive_mutex
00021314 g     F .text	00000010 uart_getchar
20018bb0 g       .bss	00000000 _stack_top
2001087c g     O .bss	00000138 __sf
00022410 g     F .text	0000000c tee_ta_push_current_session
0002f524 g     F .text	00000276 .hidden __aeabi_dadd
0002fcbc g     F .text	00000082 .hidden __ledf2
0002a318 g     F .text	000000b4 __pow5mult
0002f824 g     F .text	0000006a .hidden __aeabi_ul2d
0002e672 g     F .text	000000b8 sha256_process
000239c4 g     F .text	00000002 __retarget_lock_release_recursive
000223f8 g     F .text	00000016 tee_ta_invoke_command
0002a844 g     F .text	000000c0 __ssputs_r
0002ab88 g     F .text	00000030 crypto_cipher_free_ctx
000224e8 g     F .text	00000010 crypto_bignum_free
0002fdb0 g     F .text	00000012 .hidden __aeabi_dcmpgt
0002250c g     F .text	00000018 mbedtls_platform_zeroize
00021f4c g     F .text	000000f0 tee_ta_init_pseudo_ta_session
000212e4 g     F .text	0000001c uart_init
00022b5c g     F .text	0000000c __sfp_lock_acquire
00024390 g     F .text	00000096 memchr
00023f10 g     F .text	000001f8 _free_r
00029d80 g     F .text	0000000c __locale_mb_cur_max
00028d54 g     F .text	0000001c _wcsrtombs_r
0002fd9c g     F .text	00000012 .hidden __aeabi_dcmpge
0002ac68 g     F .text	000003d0 rijndael_setup
0002f520 g     F .text	0000027a .hidden __aeabi_dsub
20010034 g     O .data	00000004 __malloc_sbrk_base
00020000 g     F .start	00000000 _start
000351ac g       .rodata	00000000 __stop_user_ta_head_section
0002f824 g     F .text	0000006a .hidden __floatundidf
0002122e g     F .text	00000010 _lseek
0002fe40 g       .rodata	00000000 __rodata_start
0002a3cc g     F .text	000000e8 __lshift
00029db4 g     F .text	00000058 __ssprint_r
200106fc g     O .bss	0000016c irq_handlers
000211b0 g     F .text	00000000 _irq_handler
20014a18 g     O .bss	00000088 cipher_descriptor
000225f4 g     F .text	00000076 mbedtls_mpi_copy
000211ac g     F .text	00000000 _exception_handler
0002a1b4 g     F .text	00000164 __multiply
00029eec g     F .text	00000064 strncpy
200109b8 g     O .bss	00000028 __malloc_current_mallinfo
0002a674 g     F .text	000000c0 __d2b
0002149c g     F .text	00000024 Hello_World_TA_CloseSessionEntryPoint
00024108 g     F .text	00000024 _close_r
0002f7bc g     F .text	00000022 .hidden __aeabi_i2d
00023748 g     F .text	0000005c memcmp
20010008 g     O .data	00000004 crosshyp_hypercall
0002f422 g     F .text	000000b8 sha512_process
000224b0 g     F .text	00000038 crypto_bignum_copy
000239bc g     F .text	00000002 __retarget_lock_close_recursive
0002365c g     F .text	000000c4 __swsetup_r
00022428 g     F .text	00000024 crypto_bignum_num_bytes
0002fae4 g     F .text	000001d0 .hidden __divdf3
0002f4dc g     F .text	0000003c register_prng
20010040 g     O .data	00000408 __malloc_av_
0002f890 g     F .text	00000254 .hidden __muldf3
00022c04 g     F .text	00000022 __sread
0002241c g     F .text	0000000c tee_ta_pop_current_session
00023720 g     F .text	0000000c __malloc_lock
0002433c g     F .text	00000054 _fflush_r
00021598 g     F .text	0000004c tee_user_mem_alloc
000237a4 g     F .text	0000006e _calloc_r
00021b08 g     F .text	0000003a tee_obj_close
0002f288 g     F .text	00000098 sha512_init
0002f41e g     F .text	00000004 sha512_test
000239c0 g     F .text	00000002 __retarget_lock_acquire_recursive
200106fc g       .bss	00000000 __bss_start
0002b038 g     F .text	0000041c rijndael_ecb_encrypt
00023914 g     F .text	000000a2 memset
00021400 g     F .text	00000058 main
200109e0 g     O .bss	00000004 __malloc_max_total_mem
000239b8 g     F .text	00000002 __retarget_lock_init_recursive
00021ab2 g     F .text	00000008 tee_cryp_init
00021300 g     F .text	00000014 uart_putc
00022c90 g     F .text	00000008 __sclose
0002bdc8 g     F .text	000000ee sha1_done
00028ea8 g     F .text	00000ed8 _dtoa_r
00022cb8 g     F .text	00000556 _malloc_r
00029ed0 g     F .text	0000001c __ascii_wctomb
0002244c g     F .text	00000048 crypto_bignum_bn2bin
0002f834 g     F .text	0000005a .hidden __aeabi_l2d
20010874 g     O .bss	00000004 current_session
00020044 g       .start	00000000 boot_clear
00023e58 g     F .text	000000b8 _malloc_trim_r
0002a734 g     F .text	000000ec _wcsnrtombs_l
00021bd0 g     F .text	00000048 tee_ioctl_open_session
000351ac g       .rodata	00000000 __start_user_ta_head_section
0002fcc4 g     F .text	0000007a .hidden __nedf2
00021000 g       .text	00000000 _exception_vector
0002a820 g     F .text	00000024 _wcsnrtombs_r
00023270 g     F .text	0000002c _write_r
000224f8 g     F .text	00000014 crypto_bignum_clear
20010000 g       .data	00000000 _data_vma_start
20010448 g     O .data	00000004 _impure_ptr
00021b42 g     F .text	00000016 tee_obj_close_all
00024214 g     F .text	00000128 __sflush_r
00023618 g     F .text	00000042 _fwalk_sglue
00021324 g     F .text	000000ac lpc_uart_init
20010018 g     O .data	00000008 tee_open_sessions
0002f320 g     F .text	000000fe sha512_done
00029f50 g     F .text	0000002a __ascii_mbtowc
00022278 g     F .text	00000016 tee_ta_get_session
000226b0 g     F .text	0000000c mbedtls_mpi_size
00021590 g     F .text	00000008 TEE_Free
0002fd60 g     F .text	00000012 .hidden __aeabi_dcmpeq
20010028 g     O .data	0000000c __sglue
000211fa g     F .text	00000034 _write
00008000 g       *ABS*	00000000 START_ADDRESS_BL32
000351c0 g       .data	00000000 _data_lma_start
000213fc g     F .text	00000002 arch_init
00022494 g     F .text	0000001c crypto_bignum_bin2bn
00022c28 g     F .text	0000003e __swrite
20010038 g     O .data	00000004 __malloc_trim_threshold
000241ec g     F .text	00000028 fiprintf
00027e08 g     F .text	00000e70 _vfiprintf_r
0002ab50 g     F .text	00000038 crypto_hash_free_ctx
0002a4f4 g     F .text	00000180 __mdiff
0002fdf0 g     F .text	0000004e .hidden __aeabi_d2iz
00021458 g     F .text	00000044 Hello_World_TA_OpenSessionEntryPoint
00021278 g     F .text	00000010 _kill
20010450 g     O .data	00000140 _impure_data
0002b8a0 g     F .text	00000002 rijndael_done
20010004 g     O .data	00000004 uart
00022b68 g     F .text	0000000c __sfp_lock_release
00022524 g     F .text	0000003c mbedtls_mpi_free
000307c8 g     O .rodata	00000101 _ctype_
000211e0 g     F .text	0000001a _read
0002fdc4 g     F .text	0000002c .hidden __unorddf2
00021ac4 g     F .text	0000000a tee_svc_copy_to_user
20014b28 g     O .bss	00000088 prng_descriptor
0002126c g     F .text	00000008 _exit
000214c0 g     F .text	000000c8 Hello_World_TA_InvokeCommandEntryPoint
000239e4 g     F .text	000000dc __smakebuf_r
0002297c g     F .text	0000005c strlen
0002fd50 g     F .text	00000010 .hidden __aeabi_cdcmpeq
0002fcb4 g     F .text	0000008a .hidden __gedf2
00035180 g       .rodata	00000000 __start_ta_head_section
000213d0 g     F .text	00000018 lpc_uart_putc
00029d94 g     F .text	0000001e __sprint_r
0002f7e0 g     F .text	00000042 .hidden __aeabi_f2d
0002b8a2 g     F .text	00000030 rijndael_keysize
0002f520 g     F .text	0000027a .hidden __subdf3
0002610c g     F .text	00001c7c _vfprintf_r
0002233c g     F .text	000000bc tee_ta_open_session
0002a0f8 g     F .text	0000005e __lo0bits
00029e0c g     F .text	0000006c frexp
20010590 g     O .data	0000016c __global_locale
0002abb8 g     F .text	00000034 crypto_mac_free_ctx
00034d60 g     O .rodata	00000068 aes_desc
200109f0 g     O .bss	00000001 __lock___sfp_recursive_mutex
00029e78 g     F .text	00000058 raise
0002123e g     F .text	00000006 _close
00022ca8 g     F .text	00000010 free
0002a00c g     F .text	000000a4 __multadd
00029ff8 g     F .text	00000012 _Bfree
20010878 g     O .bss	00000004 mbedtls_mpi_mempool



Disassembly of section .start:

00020000 <_start>:
.thumb
.thumb_func
.global _start
_start:
    // Disable interrupts
    cpsid i
   20000:	b672      	cpsid	i

    // Config VTOR & MSPLIM register
    ldr r0, =SCB_BASE
   20002:	4819      	ldr	r0, [pc, #100]	@ (20068 <copy_data+0x10>)
    ldr r1, =_exception_vector
   20004:	4919      	ldr	r1, [pc, #100]	@ (2006c <copy_data+0x14>)
    str r1, [r0, #SCB_VTOR_OFF]
   20006:	6081      	str	r1, [r0, #8]
    // Read the MSP from vector table
    ldr r1, [r1]
   20008:	6809      	ldr	r1, [r1, #0]
    msr msp, r1
   2000a:	f381 8808 	msr	MSP, r1
    ldr r3, =_stack_base
   2000e:	4b18      	ldr	r3, [pc, #96]	@ (20070 <copy_data+0x18>)
    msr msplim, r3
   20010:	f383 880a 	msr	MSPLIM, r3

    // Enable Fault Handlers
    ldr r4, [r0, #SCB_SHCSR_OFF]
   20014:	6a44      	ldr	r4, [r0, #36]	@ 0x24
    orr r4, r4, #SCB_SHCSR_EN_ALL_FAULTS
   20016:	f444 24e0 	orr.w	r4, r4, #458752	@ 0x70000
    str r4, [r0, #SCB_SHCSR_OFF]
   2001a:	6244      	str	r4, [r0, #36]	@ 0x24

    // Copy data from RX to RWX
    ldr r7, =_data_lma_start        // LMA start
   2001c:	4f15      	ldr	r7, [pc, #84]	@ (20074 <copy_data+0x1c>)
    ldr r11, =_data_vma_start       // VMA start
   2001e:	f8df b058 	ldr.w	fp, [pc, #88]	@ 20078 <copy_data+0x20>
    ldr r12, =_data_lma_end         // LMA end
   20022:	f8df c058 	ldr.w	ip, [pc, #88]	@ 2007c <copy_data+0x24>
    bl copy_data
   20026:	f000 f817 	bl	20058 <copy_data>

    // Clear bss
    ldr r11, =__bss_start
   2002a:	f8df b054 	ldr.w	fp, [pc, #84]	@ 20080 <copy_data+0x28>
    ldr r12, =__bss_end
   2002e:	f8df c054 	ldr.w	ip, [pc, #84]	@ 20084 <copy_data+0x2c>
    bl boot_clear
   20032:	f000 f807 	bl	20044 <boot_clear>

    isb
   20036:	f3bf 8f6f 	isb	sy

#endif
*/

    // Reenable interrupts
    cpsie i
   2003a:	b662      	cpsie	i

    // TODO: other c runtime init (eg ctors)
    // TODO:ARMV8M - If MPU is configured, we need to switch to unprivileged mode ?

    b _init
   2003c:	f001 b924 	b.w	21288 <_init>
    b _exit
   20040:	f001 b914 	b.w	2126c <_exit>

00020044 <boot_clear>:

.global boot_clear
boot_clear:
2:
    mov r8, #0
   20044:	f04f 0800 	mov.w	r8, #0
	cmp r11, r12
   20048:	45e3      	cmp	fp, ip
	bge 1f
   2004a:	da04      	bge.n	20056 <boot_clear+0x12>
	str r8, [r11]
   2004c:	f8cb 8000 	str.w	r8, [fp]
	add r11, r11, #4
   20050:	f10b 0b04 	add.w	fp, fp, #4
	b 2b
   20054:	e7f6      	b.n	20044 <boot_clear>
1:
	bx lr
   20056:	4770      	bx	lr

00020058 <copy_data>:

/* Copies data from r7 to r11 up to the r12 limit */
.global copy_data
copy_data:
1:
    ldr r8, [r7], #4
   20058:	f857 8b04 	ldr.w	r8, [r7], #4
    str r8, [r11], #4
   2005c:	f84b 8b04 	str.w	r8, [fp], #4
    cmp r7, r12
   20060:	4567      	cmp	r7, ip
    bne 1b
   20062:	d1f9      	bne.n	20058 <copy_data>
    bx lr
   20064:	4770      	bx	lr
   20066:	0000      	.short	0x0000
    ldr r0, =SCB_BASE
   20068:	e000ed00 	.word	0xe000ed00
    ldr r1, =_exception_vector
   2006c:	00021000 	.word	0x00021000
    ldr r3, =_stack_base
   20070:	20014bb0 	.word	0x20014bb0
    ldr r7, =_data_lma_start        // LMA start
   20074:	000351c0 	.word	0x000351c0
    ldr r11, =_data_vma_start       // VMA start
   20078:	20010000 	.word	0x20010000
    ldr r12, =_data_lma_end         // LMA end
   2007c:	000358bc 	.word	0x000358bc
    ldr r11, =__bss_start
   20080:	200106fc 	.word	0x200106fc
    ldr r12, =__bss_end
   20084:	20014bb0 	.word	0x20014bb0

Disassembly of section .text:

00021000 <_exception_vector>:
   21000:	20018bb0 	.word	0x20018bb0
   21004:	00020001 	.word	0x00020001
   21008:	000211ad 	.word	0x000211ad
   2100c:	000211ad 	.word	0x000211ad
   21010:	000211ad 	.word	0x000211ad
   21014:	000211ad 	.word	0x000211ad
   21018:	000211ad 	.word	0x000211ad
   2101c:	000211ad 	.word	0x000211ad
   21020:	000211ad 	.word	0x000211ad
   21024:	000211ad 	.word	0x000211ad
   21028:	000211ad 	.word	0x000211ad
   2102c:	000211ad 	.word	0x000211ad
   21030:	000211ad 	.word	0x000211ad
   21034:	000211ad 	.word	0x000211ad
   21038:	000211ad 	.word	0x000211ad
   2103c:	000211bd 	.word	0x000211bd
   21040:	000211b1 	.word	0x000211b1
   21044:	000211b1 	.word	0x000211b1
   21048:	000211b1 	.word	0x000211b1
   2104c:	000211b1 	.word	0x000211b1
   21050:	000211b1 	.word	0x000211b1
   21054:	000211b1 	.word	0x000211b1
   21058:	000211b1 	.word	0x000211b1
   2105c:	000211b1 	.word	0x000211b1
   21060:	000211b1 	.word	0x000211b1
   21064:	000211b1 	.word	0x000211b1
   21068:	000211b1 	.word	0x000211b1
   2106c:	000211b1 	.word	0x000211b1
   21070:	000211b1 	.word	0x000211b1
   21074:	000211b1 	.word	0x000211b1
   21078:	000211b1 	.word	0x000211b1
   2107c:	000211b1 	.word	0x000211b1
   21080:	000211b1 	.word	0x000211b1
   21084:	000211b1 	.word	0x000211b1
   21088:	000211b1 	.word	0x000211b1
   2108c:	000211b1 	.word	0x000211b1
   21090:	000211b1 	.word	0x000211b1
   21094:	000211b1 	.word	0x000211b1
   21098:	000211b1 	.word	0x000211b1
   2109c:	000211b1 	.word	0x000211b1
   210a0:	000211b1 	.word	0x000211b1
   210a4:	000211b1 	.word	0x000211b1
   210a8:	000211b1 	.word	0x000211b1
   210ac:	000211b1 	.word	0x000211b1
   210b0:	000211b1 	.word	0x000211b1
   210b4:	000211b1 	.word	0x000211b1
   210b8:	000211b1 	.word	0x000211b1
   210bc:	000211b1 	.word	0x000211b1
   210c0:	000211b1 	.word	0x000211b1
   210c4:	000211b1 	.word	0x000211b1
   210c8:	000211b1 	.word	0x000211b1
   210cc:	000211b1 	.word	0x000211b1
   210d0:	000211b1 	.word	0x000211b1
   210d4:	000211b1 	.word	0x000211b1
   210d8:	000211b1 	.word	0x000211b1
   210dc:	000211b1 	.word	0x000211b1
   210e0:	000211b1 	.word	0x000211b1
   210e4:	000211b1 	.word	0x000211b1
   210e8:	000211b1 	.word	0x000211b1
   210ec:	000211b1 	.word	0x000211b1
   210f0:	000211b1 	.word	0x000211b1
   210f4:	000211b1 	.word	0x000211b1
   210f8:	000211b1 	.word	0x000211b1
   210fc:	000211b1 	.word	0x000211b1
   21100:	000211b1 	.word	0x000211b1
   21104:	000211b1 	.word	0x000211b1
   21108:	000211b1 	.word	0x000211b1
   2110c:	000211b1 	.word	0x000211b1
   21110:	000211b1 	.word	0x000211b1
   21114:	000211b1 	.word	0x000211b1
   21118:	000211b1 	.word	0x000211b1
   2111c:	000211b1 	.word	0x000211b1
   21120:	000211b1 	.word	0x000211b1
   21124:	000211b1 	.word	0x000211b1
   21128:	000211b1 	.word	0x000211b1
   2112c:	000211b1 	.word	0x000211b1
   21130:	000211b1 	.word	0x000211b1
   21134:	000211b1 	.word	0x000211b1
   21138:	000211b1 	.word	0x000211b1
   2113c:	000211b1 	.word	0x000211b1
   21140:	000211b1 	.word	0x000211b1
   21144:	000211b1 	.word	0x000211b1
   21148:	000211b1 	.word	0x000211b1
   2114c:	000211b1 	.word	0x000211b1
   21150:	000211b1 	.word	0x000211b1
   21154:	000211b1 	.word	0x000211b1
   21158:	000211b1 	.word	0x000211b1
   2115c:	000211b1 	.word	0x000211b1
   21160:	000211b1 	.word	0x000211b1
   21164:	000211b1 	.word	0x000211b1
   21168:	000211b1 	.word	0x000211b1
   2116c:	000211b1 	.word	0x000211b1
   21170:	000211b1 	.word	0x000211b1
   21174:	000211b1 	.word	0x000211b1
   21178:	000211b1 	.word	0x000211b1
   2117c:	000211b1 	.word	0x000211b1
   21180:	000211b1 	.word	0x000211b1
   21184:	000211b1 	.word	0x000211b1
   21188:	000211b1 	.word	0x000211b1
   2118c:	000211b1 	.word	0x000211b1
   21190:	000211b1 	.word	0x000211b1
   21194:	000211b1 	.word	0x000211b1
   21198:	000211b1 	.word	0x000211b1
   2119c:	000211b1 	.word	0x000211b1
   211a0:	000211b1 	.word	0x000211b1
   211a4:	000211b1 	.word	0x000211b1
   211a8:	000211b1 	.word	0x000211b1

000211ac <_exception_handler>:
    .endr

/* Handlers */
define_handler _exception_handler
_exception_handler:
    b   .
   211ac:	e7fe      	b.n	211ac <_exception_handler>
   211ae:	bf00      	nop

000211b0 <_irq_handler>:

define_handler _irq_handler
_irq_handler:
    // Get the IRQ number
    mrs r0, IPSR
   211b0:	f3ef 8005 	mrs	r0, IPSR
    // Call the IRQ handler
    b   irq_handle
   211b4:	f000 b808 	b.w	211c8 <irq_handle>
    // Should never reach here
    b   .
   211b8:	e7fe      	b.n	211b8 <_irq_handler+0x8>
   211ba:	bf00      	nop

000211bc <_systick_handler>:

define_handler _systick_handler
_systick_handler:
    // Call the SysTick handler
    mov r0, #TIMER_IRQ_ID
   211bc:	f04f 000f 	mov.w	r0, #15
    b   irq_handle
   211c0:	f000 b802 	b.w	211c8 <irq_handle>
    // Should never reach here
    b   .
   211c4:	e7fe      	b.n	211c4 <_systick_handler+0x8>
   211c6:	bf00      	nop

000211c8 <irq_handle>:
    if(id < IRQ_NUM)
        irq_handlers[id] = handler;
}

void irq_handle(unsigned id){
    if(id < IRQ_NUM && irq_handlers[id] != NULL)
   211c8:	285a      	cmp	r0, #90	@ 0x5a
   211ca:	d806      	bhi.n	211da <irq_handle+0x12>
void irq_handle(unsigned id){
   211cc:	b508      	push	{r3, lr}
    if(id < IRQ_NUM && irq_handlers[id] != NULL)
   211ce:	4b03      	ldr	r3, [pc, #12]	@ (211dc <irq_handle+0x14>)
   211d0:	f853 3020 	ldr.w	r3, [r3, r0, lsl #2]
   211d4:	b103      	cbz	r3, 211d8 <irq_handle+0x10>
        irq_handlers[id](id);
   211d6:	4798      	blx	r3
}
   211d8:	bd08      	pop	{r3, pc}
   211da:	4770      	bx	lr
   211dc:	200106fc 	.word	0x200106fc

000211e0 <_read>:
#include <cpu.h>
#include <fences.h>
#include <wfi.h>

int _read(int file, char *ptr, int len)
{
   211e0:	b570      	push	{r4, r5, r6, lr}
    int i;
    for (i = 0; i < len; ++i)
   211e2:	1e16      	subs	r6, r2, #0
   211e4:	dd07      	ble.n	211f6 <_read+0x16>
   211e6:	1e4c      	subs	r4, r1, #1
   211e8:	19a5      	adds	r5, r4, r6
    {
        ptr[i] = uart_getchar();
   211ea:	f000 f893 	bl	21314 <uart_getchar>
   211ee:	f804 0f01 	strb.w	r0, [r4, #1]!
    for (i = 0; i < len; ++i)
   211f2:	42ac      	cmp	r4, r5
   211f4:	d1f9      	bne.n	211ea <_read+0xa>
    }

    return len;
}
   211f6:	4630      	mov	r0, r6
   211f8:	bd70      	pop	{r4, r5, r6, pc}

000211fa <_write>:

int _write(int file, char *ptr, int len)
{
   211fa:	e92d 41f0 	stmdb	sp!, {r4, r5, r6, r7, r8, lr}
    int i;
    for (i = 0; i < len; ++i)
   211fe:	1e17      	subs	r7, r2, #0
   21200:	dd12      	ble.n	21228 <_write+0x2e>
   21202:	1e4c      	subs	r4, r1, #1
   21204:	19e6      	adds	r6, r4, r7
    {
        if (ptr[i] == '\n')
        {
            uart_putc('\r');
   21206:	f04f 080d 	mov.w	r8, #13
   2120a:	e004      	b.n	21216 <_write+0x1c>
        }
        uart_putc(ptr[i]);
   2120c:	7828      	ldrb	r0, [r5, #0]
   2120e:	f000 f877 	bl	21300 <uart_putc>
    for (i = 0; i < len; ++i)
   21212:	42b4      	cmp	r4, r6
   21214:	d008      	beq.n	21228 <_write+0x2e>
        if (ptr[i] == '\n')
   21216:	3401      	adds	r4, #1
   21218:	4625      	mov	r5, r4
   2121a:	7823      	ldrb	r3, [r4, #0]
   2121c:	2b0a      	cmp	r3, #10
   2121e:	d1f5      	bne.n	2120c <_write+0x12>
            uart_putc('\r');
   21220:	4640      	mov	r0, r8
   21222:	f000 f86d 	bl	21300 <uart_putc>
   21226:	e7f1      	b.n	2120c <_write+0x12>
    }

    return len;
}
   21228:	4638      	mov	r0, r7
   2122a:	e8bd 81f0 	ldmia.w	sp!, {r4, r5, r6, r7, r8, pc}

0002122e <_lseek>:

int _lseek(int file, int ptr, int dir)
{
   2122e:	b508      	push	{r3, lr}
    errno = ESPIPE;
   21230:	f002 f834 	bl	2329c <__errno>
   21234:	231d      	movs	r3, #29
   21236:	6003      	str	r3, [r0, #0]
    return -1;
}
   21238:	f04f 30ff 	mov.w	r0, #4294967295	@ 0xffffffff
   2123c:	bd08      	pop	{r3, pc}

0002123e <_close>:

int _close(int file)
{
    return -1;
}
   2123e:	f04f 30ff 	mov.w	r0, #4294967295	@ 0xffffffff
   21242:	4770      	bx	lr

00021244 <_fstat>:

int _fstat(int file, struct stat *st)
{
    st->st_mode = S_IFCHR;
   21244:	f44f 5300 	mov.w	r3, #8192	@ 0x2000
   21248:	604b      	str	r3, [r1, #4]
    return 0;
}
   2124a:	2000      	movs	r0, #0
   2124c:	4770      	bx	lr

0002124e <_isatty>:

int _isatty(int fd)
{
   2124e:	b508      	push	{r3, lr}
    errno = ENOTTY;
   21250:	f002 f824 	bl	2329c <__errno>
   21254:	2319      	movs	r3, #25
   21256:	6003      	str	r3, [r0, #0]
    return 0;
}
   21258:	2000      	movs	r0, #0
   2125a:	bd08      	pop	{r3, pc}

0002125c <_sbrk>:

void* _sbrk(int increment)
{
   2125c:	4603      	mov	r3, r0
    extern char _heap_base;
    static char* heap_end = &_heap_base;
    char* current_heap_end = heap_end;
   2125e:	4a02      	ldr	r2, [pc, #8]	@ (21268 <_sbrk+0xc>)
   21260:	6810      	ldr	r0, [r2, #0]
    heap_end += increment;
   21262:	4403      	add	r3, r0
   21264:	6013      	str	r3, [r2, #0]
    return current_heap_end;
}
   21266:	4770      	bx	lr
   21268:	20010000 	.word	0x20010000

0002126c <_exit>:
    DMB();
}

static inline void fence_ord(void)
{
    DMB();
   2126c:	f3bf 8f5f 	dmb	sy
#ifndef ARCH_WFI_H
#define ARCH_WFI_H

static inline void wfi()
{
    asm volatile("wfi\n\t" ::: "memory");
   21270:	bf30      	wfi

void _exit(int return_value)
{
    fence_ord();
    while (1) {
   21272:	e7fd      	b.n	21270 <_exit+0x4>

00021274 <_getpid>:
}

int _getpid(void)
{
  return 1;
}
   21274:	2001      	movs	r0, #1
   21276:	4770      	bx	lr

00021278 <_kill>:

int _kill(int pid, int sig)
{
   21278:	b508      	push	{r3, lr}
    errno = EINVAL;
   2127a:	f002 f80f 	bl	2329c <__errno>
   2127e:	2316      	movs	r3, #22
   21280:	6003      	str	r3, [r0, #0]
    return -1;
}
   21282:	f04f 30ff 	mov.w	r0, #4294967295	@ 0xffffffff
   21286:	bd08      	pop	{r3, pc}

00021288 <_init>:

static bool init_done = false;
static spinlock_t init_lock = {0}; 

__attribute__((weak))
void _init(){
   21288:	b508      	push	{r3, lr}
    uint32_t ticket;
    uint32_t next;
    uint32_t temp;

    (void)lock;
    __asm__ volatile(
   2128a:	4b14      	ldr	r3, [pc, #80]	@ (212dc <_init+0x54>)
   2128c:	1d18      	adds	r0, r3, #4
   2128e:	e8d3 cfef 	ldaex	ip, [r3]
   21292:	f10c 0201 	add.w	r2, ip, #1
   21296:	e843 2100 	strex	r1, r2, [r3]
   2129a:	2900      	cmp	r1, #0
   2129c:	d1f7      	bne.n	2128e <_init+0x6>
   2129e:	6802      	ldr	r2, [r0, #0]
   212a0:	4594      	cmp	ip, r2
   212a2:	d001      	beq.n	212a8 <_init+0x20>
   212a4:	bf20      	wfe
   212a6:	e7fa      	b.n	2129e <_init+0x16>

    spin_lock(&init_lock);
    if(!init_done) {
   212a8:	4b0d      	ldr	r3, [pc, #52]	@ (212e0 <_init+0x58>)
   212aa:	781b      	ldrb	r3, [r3, #0]
   212ac:	b17b      	cbz	r3, 212ce <_init+0x46>

static inline void spin_unlock(spinlock_t* lock)
{
    uint32_t temp;

    __asm__ volatile(
   212ae:	4b0b      	ldr	r3, [pc, #44]	@ (212dc <_init+0x54>)
   212b0:	1d1a      	adds	r2, r3, #4
   212b2:	6813      	ldr	r3, [r2, #0]
   212b4:	f103 0301 	add.w	r3, r3, #1
   212b8:	e8c2 3faf 	stl	r3, [r2]
   212bc:	f3bf 8f4b 	dsb	ish
   212c0:	bf40      	sev
        init_done = true;
        uart_init();
    }
    spin_unlock(&init_lock);
    
    arch_init();
   212c2:	f000 f89b 	bl	213fc <arch_init>

    int ret = main();
   212c6:	f000 f89b 	bl	21400 <main>
    _exit(ret);
   212ca:	f7ff ffcf 	bl	2126c <_exit>
        init_done = true;
   212ce:	4b04      	ldr	r3, [pc, #16]	@ (212e0 <_init+0x58>)
   212d0:	2201      	movs	r2, #1
   212d2:	701a      	strb	r2, [r3, #0]
        uart_init();
   212d4:	f000 f806 	bl	212e4 <uart_init>
   212d8:	e7e9      	b.n	212ae <_init+0x26>
   212da:	bf00      	nop
   212dc:	20010868 	.word	0x20010868
   212e0:	20010870 	.word	0x20010870

000212e4 <uart_init>:
#include <sysregs.h>

struct fc_uart *uart  = (void*) PLAT_UART_ADDR;

void uart_init(void)
{
   212e4:	b510      	push	{r4, lr}
    lpc_uart_init(uart);
   212e6:	4c05      	ldr	r4, [pc, #20]	@ (212fc <uart_init+0x18>)
   212e8:	6820      	ldr	r0, [r4, #0]
   212ea:	f000 f81b 	bl	21324 <lpc_uart_init>
    lpc_uart_enable(uart);
   212ee:	6822      	ldr	r2, [r4, #0]
void lpc_uart_putc(volatile fc_uart_t* uart, int8_t str);
char lpc_uart_getc(volatile fc_uart_t* uart);

static inline void lpc_uart_enable(volatile fc_uart_t* uart)
{
    uart->cfg |= FCUART_CFG_ENABLE;
   212f0:	6813      	ldr	r3, [r2, #0]
   212f2:	f043 0301 	orr.w	r3, r3, #1
   212f6:	6013      	str	r3, [r2, #0]

    return;
}
   212f8:	bd10      	pop	{r4, pc}
   212fa:	bf00      	nop
   212fc:	20010004 	.word	0x20010004

00021300 <uart_putc>:

void uart_putc(char c)
{
   21300:	b508      	push	{r3, lr}
    lpc_uart_putc(uart, c);
   21302:	b241      	sxtb	r1, r0
   21304:	4b02      	ldr	r3, [pc, #8]	@ (21310 <uart_putc+0x10>)
   21306:	6818      	ldr	r0, [r3, #0]
   21308:	f000 f862 	bl	213d0 <lpc_uart_putc>
}
   2130c:	bd08      	pop	{r3, pc}
   2130e:	bf00      	nop
   21310:	20010004 	.word	0x20010004

00021314 <uart_getchar>:

char uart_getchar(void)
{
   21314:	b508      	push	{r3, lr}
    return lpc_uart_getc(uart);
   21316:	4b02      	ldr	r3, [pc, #8]	@ (21320 <uart_getchar+0xc>)
   21318:	6818      	ldr	r0, [r3, #0]
   2131a:	f000 f865 	bl	213e8 <lpc_uart_getc>
}
   2131e:	bd08      	pop	{r3, pc}
   21320:	20010004 	.word	0x20010004

00021324 <lpc_uart_init>:
    GPIOSECINT_RST = 0xFF0000 | 30,
} rst_sign_t;

static inline void syscon_enable_clk(ahb_t ahbclk, size_t bit)
{
    syscon_s->ahbclkctrlx[ahbclk] |= bit;
   21324:	f04f 4380 	mov.w	r3, #1073741824	@ 0x40000000
   21328:	f8d3 2200 	ldr.w	r2, [r3, #512]	@ 0x200
   2132c:	f442 5200 	orr.w	r2, r2, #8192	@ 0x2000
   21330:	f8c3 2200 	str.w	r2, [r3, #512]	@ 0x200
    syscon_enable_clk(AHBCLKCTRL0, SYSCON_AHBCLKTRL0_ICON);
}

static inline void iocon_pin_cfg(uint8_t port, uint8_t pin, uint32_t cfg)
{
    iocon_s->pio[port][pin] = cfg;
   21334:	4a25      	ldr	r2, [pc, #148]	@ (213cc <lpc_uart_init+0xa8>)
   21336:	f240 1101 	movw	r1, #257	@ 0x101
   2133a:	f8c2 10e0 	str.w	r1, [r2, #224]	@ 0xe0
   2133e:	66d1      	str	r1, [r2, #108]	@ 0x6c

static inline void syscon_clk_src(clk_src_t clk_src, size_t clk)
{
    volatile uint32_t* clk_off = &syscon_s->systickclksel.systickclksel0;

    *(clk_off + (clk_src / sizeof(uint32_t))) = clk;
   21340:	2202      	movs	r2, #2
   21342:	f8c3 22b8 	str.w	r2, [r3, #696]	@ 0x2b8
    syscon_s->ahbclkctrlx[ahbclk] |= bit;
   21346:	f8d3 2204 	ldr.w	r2, [r3, #516]	@ 0x204
   2134a:	f442 5200 	orr.w	r2, r2, #8192	@ 0x2000
   2134e:	f8c3 2204 	str.w	r2, [r3, #516]	@ 0x204
{
    if (rsg_sign < 0xFF00UL) {
        syscon_s->presetctrlset[0] = (uint32_t)(1 << rsg_sign);
        syscon_s->presetctrlclr[0] = (uint32_t)(1 << rsg_sign);
    } else if (rsg_sign >= 0xFF00UL && rsg_sign < 0xFF0000UL) {
        syscon_s->presetctrlset[1] = (uint32_t)(1 << (rsg_sign & (~0xFF00UL)));
   21352:	f44f 5200 	mov.w	r2, #8192	@ 0x2000
   21356:	f8c3 2124 	str.w	r2, [r3, #292]	@ 0x124
        syscon_s->presetctrlclr[1] = (uint32_t)(1 << (rsg_sign & (~0xFF00UL)));
   2135a:	f8c3 2144 	str.w	r2, [r3, #324]	@ 0x144

    // Reset peripheral
    syscon_rst_sign(FCRST);

    // Set and lock Flexcomm0 to UART
    fc_cfg_s->pselid = USART | FC_PSELID_LOCK;
   2135e:	f503 2308 	add.w	r3, r3, #557056	@ 0x88000
   21362:	2209      	movs	r2, #9
   21364:	f8c3 2ff8 	str.w	r2, [r3, #4088]	@ 0xff8

    // Empty and enable txFIFO
    uart->fifocfg |= FCUART_FIFOCFG_EMPTYTX | FCUART_FIFOCFG_ENABLETX;
   21368:	f8d0 3e00 	ldr.w	r3, [r0, #3584]	@ 0xe00
   2136c:	f043 1301 	orr.w	r3, r3, #65537	@ 0x10001
   21370:	f8c0 3e00 	str.w	r3, [r0, #3584]	@ 0xe00
    uart->fifotrig &= ~FCUART_FIFOTRIG_TXLVL_MSK;
   21374:	f8d0 3e08 	ldr.w	r3, [r0, #3592]	@ 0xe08
   21378:	f423 6370 	bic.w	r3, r3, #3840	@ 0xf00
   2137c:	f8c0 3e08 	str.w	r3, [r0, #3592]	@ 0xe08
    uart->fifotrig |= FCUART_FIFOTRIG_TXLVLENA;
   21380:	f8d0 3e08 	ldr.w	r3, [r0, #3592]	@ 0xe08
   21384:	f043 0301 	orr.w	r3, r3, #1
   21388:	f8c0 3e08 	str.w	r3, [r0, #3592]	@ 0xe08

    // Empty and enable rxFIFO
    uart->fifocfg |= FCUART_FIFOCFG_EMPTYRX | FCUART_FIFOCFG_ENABLERX;
   2138c:	f8d0 3e00 	ldr.w	r3, [r0, #3584]	@ 0xe00
   21390:	f043 1302 	orr.w	r3, r3, #131074	@ 0x20002
   21394:	f8c0 3e00 	str.w	r3, [r0, #3584]	@ 0xe00
    uart->fifotrig &= ~FCUART_FIFOTRIG_RXLVL_MSK;
   21398:	f8d0 3e08 	ldr.w	r3, [r0, #3592]	@ 0xe08
   2139c:	f423 2370 	bic.w	r3, r3, #983040	@ 0xf0000
   213a0:	f8c0 3e08 	str.w	r3, [r0, #3592]	@ 0xe08
    uart->fifotrig |= FCUART_FIFOTRIG_RXLVLENA;
   213a4:	f8d0 3e08 	ldr.w	r3, [r0, #3592]	@ 0xe08
   213a8:	f043 0302 	orr.w	r3, r3, #2
   213ac:	f8c0 3e08 	str.w	r3, [r0, #3592]	@ 0xe08

    // Setup configuration
    uart->cfg |= FCUART_CFG_PARITY(UART_NOPARITY) | FCUART_CFG_STOPLEN(UART_ONESTOPBIT) |
   213b0:	6803      	ldr	r3, [r0, #0]
   213b2:	f043 0304 	orr.w	r3, r3, #4
   213b6:	6003      	str	r3, [r0, #0]
        FCUART_CFG_DATALEN(UART_DATALEN_8B) | FCUART_CFG_LOOP(0) | FCUART_CFG_SYNCEN(0) |
        FCUART_CFG_SYNCMST(0) | FCUART_CFG_CLKPOL(0) | FCUART_CFG_MODE32K(0) | FCUART_CFG_CTSEN(0);

    // Setup baudrate
    uart->brg = UART_BRG;
   213b8:	2307      	movs	r3, #7
   213ba:	6203      	str	r3, [r0, #32]
    uart->osr = UART_OSR;
   213bc:	230c      	movs	r3, #12
   213be:	6283      	str	r3, [r0, #40]	@ 0x28

    // Disable SCLK
    uart->ctl &= ~(FCUART_CTL_CC);
   213c0:	6843      	ldr	r3, [r0, #4]
   213c2:	f423 7380 	bic.w	r3, r3, #256	@ 0x100
   213c6:	6043      	str	r3, [r0, #4]
        IOCON_PIO_FUNC(1) | IOCON_PIO_MODE_INACT | IOCON_PIO_SLEW_STANDARD | IOCON_PIO_INV_DI |
            IOCON_PIO_DIGITAL_EN | IOCON_PIO_OPENDRAIN_DI);

    // Initialize the flexcomm dev with uart configurations
    fc_init(uart);
}
   213c8:	4770      	bx	lr
   213ca:	bf00      	nop
   213cc:	40001000 	.word	0x40001000

000213d0 <lpc_uart_putc>:

void lpc_uart_putc(volatile fc_uart_t* uart, int8_t c)
{
    while (0U == (uart->fifostat & FCUART_FIFOSTAT_TXNOTFULL)) { }
   213d0:	f8d0 3e04 	ldr.w	r3, [r0, #3588]	@ 0xe04
   213d4:	f013 0f20 	tst.w	r3, #32
   213d8:	d0fa      	beq.n	213d0 <lpc_uart_putc>

    uart->fifowr = (uint32_t)c;
   213da:	f8c0 1e20 	str.w	r1, [r0, #3616]	@ 0xe20

    while (0U == (uart->stat & FCUART_STAT_TXIDLE)) { }
   213de:	6883      	ldr	r3, [r0, #8]
   213e0:	f013 0f08 	tst.w	r3, #8
   213e4:	d0fb      	beq.n	213de <lpc_uart_putc+0xe>
    return;
}
   213e6:	4770      	bx	lr

000213e8 <lpc_uart_getc>:

char lpc_uart_getc(volatile fc_uart_t* uart)
{
    if (uart->fifostat & (FCUART_FIFOSTAT_RXNOTEMPTY | FCUART_FIFOSTAT_RXERR))
   213e8:	f8d0 3e04 	ldr.w	r3, [r0, #3588]	@ 0xe04
   213ec:	f013 0f42 	tst.w	r3, #66	@ 0x42
   213f0:	d100      	bne.n	213f4 <lpc_uart_getc+0xc>
    {
        return uart->fiford;
    }
   213f2:	4770      	bx	lr
        return uart->fiford;
   213f4:	f8d0 0e30 	ldr.w	r0, [r0, #3632]	@ 0xe30
   213f8:	b2c0      	uxtb	r0, r0
   213fa:	4770      	bx	lr

000213fc <arch_init>:
//#include <sysregs.h>

void _start();

//__attribute__((weak))
void arch_init(){}
   213fc:	4770      	bx	lr
	...

00021400 <main>:
 * @param         None
 *
 * @returns       None (function is not supposed to return)
 */
int main(void)
{
   21400:	b580      	push	{r7, lr}

//JOAO  SYS_Init();

  /* UART was already configured as debug port */

  printf(NORMAL "\n\n\t-= mTower v" VERSION " =-  " __DATE__ "  " __TIME__"\n\n");
   21402:	4811      	ldr	r0, [pc, #68]	@ (21448 <main+0x48>)
   21404:	f001 fa3c 	bl	22880 <puts>

  printf("+---------------------------------------------+\n");
   21408:	4c10      	ldr	r4, [pc, #64]	@ (2144c <main+0x4c>)
   2140a:	4620      	mov	r0, r4
   2140c:	f001 fa38 	bl	22880 <puts>
  printf("|     Secure handler (BL32) is running ...    |\n");
   21410:	480f      	ldr	r0, [pc, #60]	@ (21450 <main+0x50>)
   21412:	f001 fa35 	bl	22880 <puts>
  printf("+---------------------------------------------+\n");
   21416:	4620      	mov	r0, r4
   21418:	f001 fa32 	bl	22880 <puts>
#ifdef CONFIG_APPS_HW_SECURITY_EXCEPTION_EXAMPLE
  hw_security_exception_init();
//  menu_security_exception_example();
#endif

  tee_cryp_init();
   2141c:	f000 fb49 	bl	21ab2 <tee_cryp_init>
  crosshyp_hypercall(CROSSCON_HC_BLNS_ID, 0, 0);
   21420:	4b0c      	ldr	r3, [pc, #48]	@ (21454 <main+0x54>)
   21422:	681b      	ldr	r3, [r3, #0]
   21424:	2200      	movs	r2, #0
   21426:	4611      	mov	r1, r2
   21428:	4610      	mov	r0, r2
   2142a:	4798      	blx	r3
  __asm volatile (
   2142c:	460e      	mov	r6, r1
   2142e:	4617      	mov	r7, r2
      crosshyp_hypercall(CROSSCON_HC_BLNS_ID, 0, 0);
   21430:	4d08      	ldr	r5, [pc, #32]	@ (21454 <main+0x54>)
   21432:	2400      	movs	r4, #0
      ioctl(cmd, buf_data);
   21434:	4639      	mov	r1, r7
   21436:	4630      	mov	r0, r6
   21438:	f000 fcb4 	bl	21da4 <ioctl>
      crosshyp_hypercall(CROSSCON_HC_BLNS_ID, 0, 0);
   2143c:	682b      	ldr	r3, [r5, #0]
   2143e:	4622      	mov	r2, r4
   21440:	4621      	mov	r1, r4
   21442:	4620      	mov	r0, r4
   21444:	4798      	blx	r3
  while (1)
   21446:	e7f5      	b.n	21434 <main+0x34>
   21448:	0002fe40 	.word	0x0002fe40
   2144c:	0002fe74 	.word	0x0002fe74
   21450:	0002fea4 	.word	0x0002fea4
   21454:	20010008 	.word	0x20010008

00021458 <Hello_World_TA_OpenSessionEntryPoint>:
 * TA.
 */
TEE_Result Hello_World_TA_OpenSessionEntryPoint(uint32_t param_types,
		TEE_Param __maybe_unused params[4],
		void __maybe_unused **sess_ctx)
{
   21458:	b510      	push	{r4, lr}
   2145a:	b082      	sub	sp, #8
   2145c:	4604      	mov	r4, r0
	uint32_t exp_param_types = TEE_PARAM_TYPES(TEE_PARAM_TYPE_NONE,
						   TEE_PARAM_TYPE_NONE,
						   TEE_PARAM_TYPE_NONE,
						   TEE_PARAM_TYPE_NONE);

	DMSG("has been called");
   2145e:	4b0b      	ldr	r3, [pc, #44]	@ (2148c <Hello_World_TA_OpenSessionEntryPoint+0x34>)
   21460:	9300      	str	r3, [sp, #0]
   21462:	2301      	movs	r3, #1
   21464:	2203      	movs	r2, #3
   21466:	2146      	movs	r1, #70	@ 0x46
   21468:	4809      	ldr	r0, [pc, #36]	@ (21490 <Hello_World_TA_OpenSessionEntryPoint+0x38>)
   2146a:	f000 f8bf 	bl	215ec <trace_printf>

	if (param_types != exp_param_types)
   2146e:	b954      	cbnz	r4, 21486 <Hello_World_TA_OpenSessionEntryPoint+0x2e>

	/*
	 * The DMSG() macro is non-standard, TEE Internal API doesn't
	 * specify any means to logging from a TA.
	 */
	IMSG("Hello World!\n");
   21470:	4b08      	ldr	r3, [pc, #32]	@ (21494 <Hello_World_TA_OpenSessionEntryPoint+0x3c>)
   21472:	9300      	str	r3, [sp, #0]
   21474:	2301      	movs	r3, #1
   21476:	2202      	movs	r2, #2
   21478:	2153      	movs	r1, #83	@ 0x53
   2147a:	4805      	ldr	r0, [pc, #20]	@ (21490 <Hello_World_TA_OpenSessionEntryPoint+0x38>)
   2147c:	f000 f8b6 	bl	215ec <trace_printf>

	/* If return value != TEE_SUCCESS the session will not be created. */
	return TEE_SUCCESS;
   21480:	4620      	mov	r0, r4
}
   21482:	b002      	add	sp, #8
   21484:	bd10      	pop	{r4, pc}
		return TEE_ERROR_BAD_PARAMETERS;
   21486:	4804      	ldr	r0, [pc, #16]	@ (21498 <Hello_World_TA_OpenSessionEntryPoint+0x40>)
   21488:	e7fb      	b.n	21482 <Hello_World_TA_OpenSessionEntryPoint+0x2a>
   2148a:	bf00      	nop
   2148c:	0002fed4 	.word	0x0002fed4
   21490:	000303e0 	.word	0x000303e0
   21494:	0002fee4 	.word	0x0002fee4
   21498:	ffff0006 	.word	0xffff0006

0002149c <Hello_World_TA_CloseSessionEntryPoint>:
/*
 * Called when a session is closed, sess_ctx hold the value that was
 * assigned by TA_OpenSessionEntryPoint().
 */
void Hello_World_TA_CloseSessionEntryPoint(void __maybe_unused *sess_ctx)
{
   2149c:	b500      	push	{lr}
   2149e:	b083      	sub	sp, #12
	(void)&sess_ctx; /* Unused parameter */
	IMSG("Goodbye!\n");
   214a0:	4b05      	ldr	r3, [pc, #20]	@ (214b8 <Hello_World_TA_CloseSessionEntryPoint+0x1c>)
   214a2:	9300      	str	r3, [sp, #0]
   214a4:	2301      	movs	r3, #1
   214a6:	2202      	movs	r2, #2
   214a8:	2160      	movs	r1, #96	@ 0x60
   214aa:	4804      	ldr	r0, [pc, #16]	@ (214bc <Hello_World_TA_CloseSessionEntryPoint+0x20>)
   214ac:	f000 f89e 	bl	215ec <trace_printf>
}
   214b0:	b003      	add	sp, #12
   214b2:	f85d fb04 	ldr.w	pc, [sp], #4
   214b6:	bf00      	nop
   214b8:	0002fef4 	.word	0x0002fef4
   214bc:	000303b8 	.word	0x000303b8

000214c0 <Hello_World_TA_InvokeCommandEntryPoint>:
 * comes from normal world.
 */
TEE_Result Hello_World_TA_InvokeCommandEntryPoint(void __maybe_unused *sess_ctx,
			uint32_t cmd_id,
			uint32_t param_types, TEE_Param params[4])
{
   214c0:	b570      	push	{r4, r5, r6, lr}
   214c2:	b082      	sub	sp, #8
   214c4:	4615      	mov	r5, r2
   214c6:	461e      	mov	r6, r3
	(void)&sess_ctx; /* Unused parameter */

	switch (cmd_id) {
   214c8:	460c      	mov	r4, r1
   214ca:	b121      	cbz	r1, 214d6 <Hello_World_TA_InvokeCommandEntryPoint+0x16>
   214cc:	2901      	cmp	r1, #1
   214ce:	d027      	beq.n	21520 <Hello_World_TA_InvokeCommandEntryPoint+0x60>
   214d0:	4826      	ldr	r0, [pc, #152]	@ (2156c <Hello_World_TA_InvokeCommandEntryPoint+0xac>)
	case TA_HELLO_WORLD_CMD_DEC_VALUE:
		return dec_value(param_types, params);
	default:
		return TEE_ERROR_BAD_PARAMETERS;
	}
}
   214d2:	b002      	add	sp, #8
   214d4:	bd70      	pop	{r4, r5, r6, pc}
	DMSG("has been called");
   214d6:	4b26      	ldr	r3, [pc, #152]	@ (21570 <Hello_World_TA_InvokeCommandEntryPoint+0xb0>)
   214d8:	9300      	str	r3, [sp, #0]
   214da:	2301      	movs	r3, #1
   214dc:	2203      	movs	r2, #3
   214de:	216b      	movs	r1, #107	@ 0x6b
   214e0:	4824      	ldr	r0, [pc, #144]	@ (21574 <Hello_World_TA_InvokeCommandEntryPoint+0xb4>)
   214e2:	f000 f883 	bl	215ec <trace_printf>
	if (param_types != exp_param_types)
   214e6:	2d03      	cmp	r5, #3
   214e8:	d001      	beq.n	214ee <Hello_World_TA_InvokeCommandEntryPoint+0x2e>
		return TEE_ERROR_BAD_PARAMETERS;
   214ea:	4820      	ldr	r0, [pc, #128]	@ (2156c <Hello_World_TA_InvokeCommandEntryPoint+0xac>)
   214ec:	e7f1      	b.n	214d2 <Hello_World_TA_InvokeCommandEntryPoint+0x12>
	IMSG("Got value: %u from NW", params[0].value.a);
   214ee:	4d21      	ldr	r5, [pc, #132]	@ (21574 <Hello_World_TA_InvokeCommandEntryPoint+0xb4>)
   214f0:	6833      	ldr	r3, [r6, #0]
   214f2:	9301      	str	r3, [sp, #4]
   214f4:	4b20      	ldr	r3, [pc, #128]	@ (21578 <Hello_World_TA_InvokeCommandEntryPoint+0xb8>)
   214f6:	9300      	str	r3, [sp, #0]
   214f8:	2301      	movs	r3, #1
   214fa:	2202      	movs	r2, #2
   214fc:	2170      	movs	r1, #112	@ 0x70
   214fe:	4628      	mov	r0, r5
   21500:	f000 f874 	bl	215ec <trace_printf>
	params[0].value.a++;
   21504:	6833      	ldr	r3, [r6, #0]
   21506:	3301      	adds	r3, #1
   21508:	6033      	str	r3, [r6, #0]
	IMSG("Increase value to: %u", params[0].value.a);
   2150a:	9301      	str	r3, [sp, #4]
   2150c:	4b1b      	ldr	r3, [pc, #108]	@ (2157c <Hello_World_TA_InvokeCommandEntryPoint+0xbc>)
   2150e:	9300      	str	r3, [sp, #0]
   21510:	2301      	movs	r3, #1
   21512:	2202      	movs	r2, #2
   21514:	2172      	movs	r1, #114	@ 0x72
   21516:	4628      	mov	r0, r5
   21518:	f000 f868 	bl	215ec <trace_printf>
	return TEE_SUCCESS;
   2151c:	4620      	mov	r0, r4
   2151e:	e7d8      	b.n	214d2 <Hello_World_TA_InvokeCommandEntryPoint+0x12>
	DMSG("has been called");
   21520:	4b13      	ldr	r3, [pc, #76]	@ (21570 <Hello_World_TA_InvokeCommandEntryPoint+0xb0>)
   21522:	9300      	str	r3, [sp, #0]
   21524:	2301      	movs	r3, #1
   21526:	2203      	movs	r2, #3
   21528:	217f      	movs	r1, #127	@ 0x7f
   2152a:	4815      	ldr	r0, [pc, #84]	@ (21580 <Hello_World_TA_InvokeCommandEntryPoint+0xc0>)
   2152c:	f000 f85e 	bl	215ec <trace_printf>
	if (param_types != exp_param_types)
   21530:	2d03      	cmp	r5, #3
   21532:	d001      	beq.n	21538 <Hello_World_TA_InvokeCommandEntryPoint+0x78>
		return TEE_ERROR_BAD_PARAMETERS;
   21534:	480d      	ldr	r0, [pc, #52]	@ (2156c <Hello_World_TA_InvokeCommandEntryPoint+0xac>)
   21536:	e7cc      	b.n	214d2 <Hello_World_TA_InvokeCommandEntryPoint+0x12>
	IMSG("Got value: %u from NW", params[0].value.a);
   21538:	4c11      	ldr	r4, [pc, #68]	@ (21580 <Hello_World_TA_InvokeCommandEntryPoint+0xc0>)
   2153a:	6833      	ldr	r3, [r6, #0]
   2153c:	9301      	str	r3, [sp, #4]
   2153e:	4b0e      	ldr	r3, [pc, #56]	@ (21578 <Hello_World_TA_InvokeCommandEntryPoint+0xb8>)
   21540:	9300      	str	r3, [sp, #0]
   21542:	2301      	movs	r3, #1
   21544:	2202      	movs	r2, #2
   21546:	2184      	movs	r1, #132	@ 0x84
   21548:	4620      	mov	r0, r4
   2154a:	f000 f84f 	bl	215ec <trace_printf>
	params[0].value.a--;
   2154e:	6833      	ldr	r3, [r6, #0]
   21550:	3b01      	subs	r3, #1
   21552:	6033      	str	r3, [r6, #0]
	IMSG("Decrease value to: %u", params[0].value.a);
   21554:	9301      	str	r3, [sp, #4]
   21556:	4b0b      	ldr	r3, [pc, #44]	@ (21584 <Hello_World_TA_InvokeCommandEntryPoint+0xc4>)
   21558:	9300      	str	r3, [sp, #0]
   2155a:	2301      	movs	r3, #1
   2155c:	2202      	movs	r2, #2
   2155e:	2186      	movs	r1, #134	@ 0x86
   21560:	4620      	mov	r0, r4
   21562:	f000 f843 	bl	215ec <trace_printf>
	return TEE_SUCCESS;
   21566:	2000      	movs	r0, #0
   21568:	e7b3      	b.n	214d2 <Hello_World_TA_InvokeCommandEntryPoint+0x12>
   2156a:	bf00      	nop
   2156c:	ffff0006 	.word	0xffff0006
   21570:	0002fed4 	.word	0x0002fed4
   21574:	000303ac 	.word	0x000303ac
   21578:	0002ff00 	.word	0x0002ff00
   2157c:	0002ff18 	.word	0x0002ff18
   21580:	000303a0 	.word	0x000303a0
   21584:	0002ff30 	.word	0x0002ff30

00021588 <TEE_Malloc>:
	if (res != TEE_SUCCESS)
		TEE_Panic(res);
}

void *TEE_Malloc(uint32_t len, uint32_t hint)
{
   21588:	b508      	push	{r3, lr}
	return tee_user_mem_alloc(len, hint);
   2158a:	f000 f805 	bl	21598 <tee_user_mem_alloc>
}
   2158e:	bd08      	pop	{r3, pc}

00021590 <TEE_Free>:
	 */
	return tee_user_mem_realloc((void *)buffer, (size_t) newSize);
}

void TEE_Free(void *buffer)
{
   21590:	b508      	push	{r3, lr}
  tee_user_mem_free(buffer);
   21592:	f000 f827 	bl	215e4 <tee_user_mem_free>
}
   21596:	bd08      	pop	{r3, pc}

00021598 <tee_user_mem_alloc>:
#ifndef CFG_NO_USER_MALLOC_GARBAGE

#define CFG_TEE_CORE_USER_MEM_DEBUG 0

void *tee_user_mem_alloc(size_t len, uint32_t hint)
{
   21598:	b570      	push	{r4, r5, r6, lr}
   2159a:	b082      	sub	sp, #8
   2159c:	460c      	mov	r4, r1
	uint8_t *p;

	switch (hint) {
   2159e:	f031 4300 	bics.w	r3, r1, #2147483648	@ 0x80000000
   215a2:	d00a      	beq.n	215ba <tee_user_mem_alloc+0x22>
	case TEE_MALLOC_FILL_ZERO:
	case TEE_USER_MEM_HINT_NO_FILL_ZERO:
		break;
	default:
		EMSG("Invalid alloc hint [%X]", (unsigned int)hint);
   215a4:	9101      	str	r1, [sp, #4]
   215a6:	4b0d      	ldr	r3, [pc, #52]	@ (215dc <tee_user_mem_alloc+0x44>)
   215a8:	9300      	str	r3, [sp, #0]
   215aa:	2301      	movs	r3, #1
   215ac:	461a      	mov	r2, r3
   215ae:	2137      	movs	r1, #55	@ 0x37
   215b0:	480b      	ldr	r0, [pc, #44]	@ (215e0 <tee_user_mem_alloc+0x48>)
   215b2:	f000 f81b 	bl	215ec <trace_printf>
		return NULL;
   215b6:	2600      	movs	r6, #0
   215b8:	e005      	b.n	215c6 <tee_user_mem_alloc+0x2e>
   215ba:	4605      	mov	r5, r0
	}
	p = pvPortMalloc(len);
   215bc:	f009 f9d0 	bl	2a960 <pvPortMalloc>
	// printf("malloc p = %p\r\n", p);
	//DMSG("Allocate at 0x%x", p);
	if (p == NULL)
   215c0:	4606      	mov	r6, r0
   215c2:	b140      	cbz	r0, 215d6 <tee_user_mem_alloc+0x3e>
		return NULL;

	if (hint == TEE_MALLOC_FILL_ZERO)
   215c4:	b114      	cbz	r4, 215cc <tee_user_mem_alloc+0x34>
#if (CFG_TEE_CORE_USER_MEM_DEBUG == 1)
	if (hint == (typeof(hint)) TEE_USER_MEM_HINT_NO_FILL_ZERO)
		memset(p, 0xBB, len);
#endif
	return p;
}
   215c6:	4630      	mov	r0, r6
   215c8:	b002      	add	sp, #8
   215ca:	bd70      	pop	{r4, r5, r6, pc}
		memset(p, 0, len);
   215cc:	462a      	mov	r2, r5
   215ce:	2100      	movs	r1, #0
   215d0:	f002 f9a0 	bl	23914 <memset>
   215d4:	e7f7      	b.n	215c6 <tee_user_mem_alloc+0x2e>
		return NULL;
   215d6:	2600      	movs	r6, #0
   215d8:	e7f5      	b.n	215c6 <tee_user_mem_alloc+0x2e>
   215da:	bf00      	nop
   215dc:	0002ff54 	.word	0x0002ff54
   215e0:	00030408 	.word	0x00030408

000215e4 <tee_user_mem_free>:
// //   return utee_realloc(buffer, len);
// 	return p;
// }

void tee_user_mem_free(void *buffer)
{
   215e4:	b508      	push	{r3, lr}
	// printf("free p = %p\r\n", buffer);
	//DMSG("Free Pointer: 0%x", buffer);
	vPortFree(buffer);
   215e6:	f009 fa45 	bl	2aa74 <vPortFree>
//  utee_free(buffer);
}
   215ea:	bd08      	pop	{r3, pc}

000215ec <trace_printf>:
//}

/* Format trace of user ta. Inline with kernel ta */
void trace_printf(const char *function, int line, int level, bool level_ok,
		  const char *fmt, ...)
{
   215ec:	b530      	push	{r4, r5, lr}
   215ee:	b0c5      	sub	sp, #276	@ 0x114
   215f0:	4605      	mov	r5, r0
   215f2:	460c      	mov	r4, r1
	char buf[MAX_PRINT_SIZE];
	size_t boffs = 0;
	int res;
//	int thread_id;

	if (level_ok && level > trace_level)
   215f4:	2b00      	cmp	r3, #0
   215f6:	d04a      	beq.n	2168e <trace_printf+0xa2>
   215f8:	4b27      	ldr	r3, [pc, #156]	@ (21698 <trace_printf+0xac>)
   215fa:	681b      	ldr	r3, [r3, #0]
   215fc:	4293      	cmp	r3, r2
   215fe:	db44      	blt.n	2168a <trace_printf+0x9e>
	if ((level >= TRACE_MIN) && (level <= TRACE_MAX))
   21600:	1e53      	subs	r3, r2, #1
	int l = 0;
   21602:	2b04      	cmp	r3, #4
   21604:	bf28      	it	cs
   21606:	2200      	movcs	r2, #0
	return lvl_strs[l];
   21608:	4b24      	ldr	r3, [pc, #144]	@ (2169c <trace_printf+0xb0>)
   2160a:	5c9b      	ldrb	r3, [r3, r2]
		return;

	/* Print the type of message */
	res = snprintf(buf, sizeof(buf), "%c/",
   2160c:	4a24      	ldr	r2, [pc, #144]	@ (216a0 <trace_printf+0xb4>)
   2160e:	f44f 7180 	mov.w	r1, #256	@ 0x100
   21612:	a803      	add	r0, sp, #12
   21614:	f001 faae 	bl	22b74 <snprintf>
	if (res < 0)
		return;
	boffs += res;

	/* Print the location, i.e., TEE core or TA */
	res = snprintf(buf + boffs, sizeof(buf) - boffs, "%s:",
   21618:	4b22      	ldr	r3, [pc, #136]	@ (216a4 <trace_printf+0xb8>)
   2161a:	4a23      	ldr	r2, [pc, #140]	@ (216a8 <trace_printf+0xbc>)
   2161c:	21fe      	movs	r1, #254	@ 0xfe
   2161e:	f10d 000e 	add.w	r0, sp, #14
   21622:	f001 faa7 	bl	22b74 <snprintf>
	/* Print the function and line */
//	if (level_ok && !(BIT(level) & CFG_MSG_LONG_PREFIX_MASK))
//		function = NULL;
//  printf("\nKYKY %s\n", function);
//	if (function) {
		res = snprintf(buf + boffs, sizeof(buf) - boffs, "%s:%d ",
   21626:	9400      	str	r4, [sp, #0]
   21628:	462b      	mov	r3, r5
   2162a:	4a20      	ldr	r2, [pc, #128]	@ (216ac <trace_printf+0xc0>)
   2162c:	21fb      	movs	r1, #251	@ 0xfb
   2162e:	f10d 0011 	add.w	r0, sp, #17
   21632:	f001 fa9f 	bl	22b74 <snprintf>
			       function, line);
		if (res < 0)
   21636:	2800      	cmp	r0, #0
   21638:	db27      	blt.n	2168a <trace_printf+0x9e>
			return;
		boffs += res;
   2163a:	1d44      	adds	r4, r0, #5
//	}

	va_start(ap, fmt);
   2163c:	ab49      	add	r3, sp, #292	@ 0x124
   2163e:	9343      	str	r3, [sp, #268]	@ 0x10c
	res = vsnprintf(buf + boffs, sizeof(buf) - boffs, fmt, ap);
   21640:	9a48      	ldr	r2, [sp, #288]	@ 0x120
   21642:	f1c0 01fb 	rsb	r1, r0, #251	@ 0xfb
   21646:	a803      	add	r0, sp, #12
   21648:	4420      	add	r0, r4
   2164a:	f001 fe2d 	bl	232a8 <vsnprintf>
	va_end(ap);
	if (res > 0)
   2164e:	2800      	cmp	r0, #0
		boffs += res;
   21650:	bfc8      	it	gt
   21652:	1824      	addgt	r4, r4, r0

	if (boffs >= (sizeof(buf) - 1))
   21654:	4623      	mov	r3, r4
   21656:	2cfe      	cmp	r4, #254	@ 0xfe
   21658:	bf28      	it	cs
   2165a:	23fe      	movcs	r3, #254	@ 0xfe
		boffs = sizeof(buf) - 2;

	buf[boffs] = '\n';
   2165c:	aa03      	add	r2, sp, #12
   2165e:	210a      	movs	r1, #10
   21660:	54d1      	strb	r1, [r2, r3]
	while (boffs && buf[boffs] == '\n')
   21662:	b1b4      	cbz	r4, 21692 <trace_printf+0xa6>
   21664:	f503 7288 	add.w	r2, r3, #272	@ 0x110
   21668:	446a      	add	r2, sp
   2166a:	f2a2 1203 	subw	r2, r2, #259	@ 0x103
   2166e:	f812 1d01 	ldrb.w	r1, [r2, #-1]!
   21672:	290a      	cmp	r1, #10
   21674:	d101      	bne.n	2167a <trace_printf+0x8e>
   21676:	3b01      	subs	r3, #1
   21678:	d1f9      	bne.n	2166e <trace_printf+0x82>
		boffs--;
	boffs++;
	buf[boffs + 1] = '\0';
   2167a:	aa03      	add	r2, sp, #12
   2167c:	4413      	add	r3, r2
   2167e:	2200      	movs	r2, #0
   21680:	709a      	strb	r2, [r3, #2]

	printf("%s",buf);
   21682:	a903      	add	r1, sp, #12
   21684:	480a      	ldr	r0, [pc, #40]	@ (216b0 <trace_printf+0xc4>)
   21686:	f002 fa1b 	bl	23ac0 <printf>
//	trace_ext_puts(buf);
}
   2168a:	b045      	add	sp, #276	@ 0x114
   2168c:	bd30      	pop	{r4, r5, pc}
		return 'M';
   2168e:	234d      	movs	r3, #77	@ 0x4d
   21690:	e7bc      	b.n	2160c <trace_printf+0x20>
	while (boffs && buf[boffs] == '\n')
   21692:	4623      	mov	r3, r4
   21694:	e7f1      	b.n	2167a <trace_printf+0x8e>
   21696:	bf00      	nop
   21698:	2001000c 	.word	0x2001000c
   2169c:	0003041c 	.word	0x0003041c
   216a0:	0002ff6c 	.word	0x0002ff6c
   216a4:	00030424 	.word	0x00030424
   216a8:	0002ff70 	.word	0x0002ff70
   216ac:	0002ff74 	.word	0x0002ff74
   216b0:	0002ff7c 	.word	0x0002ff7c

000216b4 <mempool_alloc>:
void *simple_malloc(size_t size) {
    return malloc(size);
}

void *mempool_alloc(struct mempool *pool, size_t size)
{
   216b4:	b508      	push	{r3, lr}
    return malloc(size);
   216b6:	4608      	mov	r0, r1
   216b8:	f001 faee 	bl	22c98 <malloc>
	}

	//EMSG("Failed to allocate %zu bytes, please tune the pool size", size);
	put_pool(pool);
	return NULL;
}
   216bc:	bd08      	pop	{r3, pc}

000216be <mempool_free>:

	return p;
}

void mempool_free(struct mempool *pool, void *ptr)
{
   216be:	b508      	push	{r3, lr}
	//raw_free(ptr, pool->mctx, false /*!wipe*/);
	free(ptr);	
   216c0:	4608      	mov	r0, r1
   216c2:	f001 faf1 	bl	22ca8 <free>
	put_pool(pool);
}
   216c6:	bd08      	pop	{r3, pc}

000216c8 <op_attr_value_from_user>:
static TEE_Result op_attr_value_from_user(void *attr, const void *buffer,
					  size_t size)
{
	uint32_t *v = attr;

	if (size != sizeof(uint32_t) * 2)
   216c8:	2a08      	cmp	r2, #8
		return TEE_ERROR_GENERIC; /* "can't happen */

	/* Note that only the first value is copied */
	memcpy(v, buffer, sizeof(uint32_t));
   216ca:	bf03      	ittte	eq
   216cc:	680b      	ldreq	r3, [r1, #0]
   216ce:	6003      	streq	r3, [r0, #0]
	return TEE_SUCCESS;
   216d0:	2000      	moveq	r0, #0
		return TEE_ERROR_GENERIC; /* "can't happen */
   216d2:	4801      	ldrne	r0, [pc, #4]	@ (216d8 <op_attr_value_from_user+0x10>)
}
   216d4:	4770      	bx	lr
   216d6:	bf00      	nop
   216d8:	ffff0000 	.word	0xffff0000

000216dc <op_attr_value_from_obj>:
static TEE_Result op_attr_value_from_obj(void *attr, void *src_attr)
{
	uint32_t *v = attr;
	uint32_t *src_v = src_attr;

	*v = *src_v;
   216dc:	680b      	ldr	r3, [r1, #0]
   216de:	6003      	str	r3, [r0, #0]
	return TEE_SUCCESS;
}
   216e0:	2000      	movs	r0, #0
   216e2:	4770      	bx	lr

000216e4 <op_attr_value_clear>:
//
static void op_attr_value_clear(void *attr)
{
	uint32_t *v = attr;

	*v = 0;
   216e4:	2300      	movs	r3, #0
   216e6:	6003      	str	r3, [r0, #0]
}
   216e8:	4770      	bx	lr
	...

000216ec <tee_svc_find_type_props>:
	return -1;
}

static const struct tee_cryp_obj_type_props *tee_svc_find_type_props(
		TEE_ObjectType obj_type)
{
   216ec:	b410      	push	{r4}
	size_t n;

	for (n = 0; n < ARRAY_SIZE(tee_cryp_obj_props); n++) {
   216ee:	2300      	movs	r3, #0
		if (tee_cryp_obj_props[n].obj_type == obj_type)
   216f0:	4c06      	ldr	r4, [pc, #24]	@ (2170c <tee_svc_find_type_props+0x20>)
   216f2:	011a      	lsls	r2, r3, #4
   216f4:	58a1      	ldr	r1, [r4, r2]
   216f6:	4281      	cmp	r1, r0
   216f8:	d005      	beq.n	21706 <tee_svc_find_type_props+0x1a>
	for (n = 0; n < ARRAY_SIZE(tee_cryp_obj_props); n++) {
   216fa:	3301      	adds	r3, #1
   216fc:	2b0b      	cmp	r3, #11
   216fe:	d1f8      	bne.n	216f2 <tee_svc_find_type_props+0x6>
			return tee_cryp_obj_props + n;
	}

	return NULL;
   21700:	2000      	movs	r0, #0
}
   21702:	bc10      	pop	{r4}
   21704:	4770      	bx	lr
			return tee_cryp_obj_props + n;
   21706:	4801      	ldr	r0, [pc, #4]	@ (2170c <tee_svc_find_type_props+0x20>)
   21708:	4410      	add	r0, r2
   2170a:	e7fa      	b.n	21702 <tee_svc_find_type_props+0x16>
   2170c:	0003048c 	.word	0x0003048c

00021710 <op_attr_bignum_clear>:
{
   21710:	b508      	push	{r3, lr}
	crypto_bignum_clear(*bn);
   21712:	6800      	ldr	r0, [r0, #0]
   21714:	f000 fef0 	bl	224f8 <crypto_bignum_clear>
}
   21718:	bd08      	pop	{r3, pc}

0002171a <op_attr_bignum_free>:
{
   2171a:	b510      	push	{r4, lr}
   2171c:	4604      	mov	r4, r0
	crypto_bignum_free(*bn);
   2171e:	6800      	ldr	r0, [r0, #0]
   21720:	f000 fee2 	bl	224e8 <crypto_bignum_free>
	*bn = NULL;
   21724:	2300      	movs	r3, #0
   21726:	6023      	str	r3, [r4, #0]
}
   21728:	bd10      	pop	{r4, pc}

0002172a <op_attr_bignum_from_obj>:
{
   2172a:	b508      	push	{r3, lr}
	crypto_bignum_copy(*bn, *src_bn);
   2172c:	6809      	ldr	r1, [r1, #0]
   2172e:	6800      	ldr	r0, [r0, #0]
   21730:	f000 febe 	bl	224b0 <crypto_bignum_copy>
}
   21734:	2000      	movs	r0, #0
   21736:	bd08      	pop	{r3, pc}

00021738 <op_attr_bignum_from_user>:
{
   21738:	b508      	push	{r3, lr}
   2173a:	460b      	mov	r3, r1
   2173c:	4611      	mov	r1, r2
	return crypto_bignum_bin2bn(buffer, size, *bn);
   2173e:	6802      	ldr	r2, [r0, #0]
   21740:	4618      	mov	r0, r3
   21742:	f000 fea7 	bl	22494 <crypto_bignum_bin2bn>
}
   21746:	bd08      	pop	{r3, pc}

00021748 <op_attr_bignum_from_binary>:
	if (!data || (*offs + sizeof(field)) > data_len)
   21748:	b1d9      	cbz	r1, 21782 <op_attr_bignum_from_binary+0x3a>
{
   2174a:	b538      	push	{r3, r4, r5, lr}
   2174c:	461c      	mov	r4, r3
   2174e:	468c      	mov	ip, r1
	if (!data || (*offs + sizeof(field)) > data_len)
   21750:	6819      	ldr	r1, [r3, #0]
   21752:	1d0b      	adds	r3, r1, #4
   21754:	429a      	cmp	r2, r3
   21756:	d316      	bcc.n	21786 <op_attr_bignum_from_binary+0x3e>
	memcpy(&field, data + *offs, sizeof(field));
   21758:	f85c 5001 	ldr.w	r5, [ip, r1]
	*v = TEE_U32_FROM_BIG_ENDIAN(field);
   2175c:	ba2d      	rev	r5, r5
	(*offs) += sizeof(field);
   2175e:	6023      	str	r3, [r4, #0]
	if ((*offs + n) > data_len)
   21760:	1959      	adds	r1, r3, r5
   21762:	4291      	cmp	r1, r2
   21764:	d901      	bls.n	2176a <op_attr_bignum_from_binary+0x22>
		return false;
   21766:	2000      	movs	r0, #0
}
   21768:	bd38      	pop	{r3, r4, r5, pc}
	if (crypto_bignum_bin2bn((const uint8_t *)data + *offs, n, *bn))
   2176a:	6802      	ldr	r2, [r0, #0]
   2176c:	4629      	mov	r1, r5
   2176e:	eb0c 0003 	add.w	r0, ip, r3
   21772:	f000 fe8f 	bl	22494 <crypto_bignum_bin2bn>
   21776:	b940      	cbnz	r0, 2178a <op_attr_bignum_from_binary+0x42>
	(*offs) += n;
   21778:	6823      	ldr	r3, [r4, #0]
   2177a:	442b      	add	r3, r5
   2177c:	6023      	str	r3, [r4, #0]
	return true;
   2177e:	2001      	movs	r0, #1
   21780:	e7f2      	b.n	21768 <op_attr_bignum_from_binary+0x20>
		return false;
   21782:	2000      	movs	r0, #0
}
   21784:	4770      	bx	lr
		return false;
   21786:	2000      	movs	r0, #0
   21788:	e7ee      	b.n	21768 <op_attr_bignum_from_binary+0x20>
		return false;
   2178a:	2000      	movs	r0, #0
   2178c:	e7ec      	b.n	21768 <op_attr_bignum_from_binary+0x20>
	...

00021790 <op_attr_bignum_to_binary>:
{
   21790:	e92d 41f0 	stmdb	sp!, {r4, r5, r6, r7, r8, lr}
   21794:	4606      	mov	r6, r0
   21796:	460d      	mov	r5, r1
   21798:	4617      	mov	r7, r2
   2179a:	461c      	mov	r4, r3
	uint32_t n = crypto_bignum_num_bytes(*bn);
   2179c:	6800      	ldr	r0, [r0, #0]
   2179e:	f000 fe43 	bl	22428 <crypto_bignum_num_bytes>
	if (ADD_OVERFLOW(*offs, sizeof(field), &next_offs))
   217a2:	6823      	ldr	r3, [r4, #0]
   217a4:	1d19      	adds	r1, r3, #4
   217a6:	d218      	bcs.n	217da <op_attr_bignum_to_binary+0x4a>
   217a8:	460a      	mov	r2, r1
	if (data && next_offs <= data_len) {
   217aa:	b1d5      	cbz	r5, 217e2 <op_attr_bignum_to_binary+0x52>
   217ac:	428f      	cmp	r7, r1
   217ae:	d303      	bcc.n	217b8 <op_attr_bignum_to_binary+0x28>
		field = TEE_U32_TO_BIG_ENDIAN(v);
   217b0:	fa90 fc80 	rev.w	ip, r0
		memcpy(data + *offs, &field, sizeof(field));
   217b4:	f845 c003 	str.w	ip, [r5, r3]
	(*offs) = next_offs;
   217b8:	6021      	str	r1, [r4, #0]
	if (ADD_OVERFLOW(*offs, n, &next_offs))
   217ba:	eb10 0c02 	adds.w	ip, r0, r2
   217be:	d20e      	bcs.n	217de <op_attr_bignum_to_binary+0x4e>
   217c0:	46e0      	mov	r8, ip
	if (data && next_offs <= data_len)
   217c2:	4567      	cmp	r7, ip
   217c4:	d204      	bcs.n	217d0 <op_attr_bignum_to_binary+0x40>
	(*offs) = next_offs;
   217c6:	f8c4 8000 	str.w	r8, [r4]
	return TEE_SUCCESS;
   217ca:	2000      	movs	r0, #0
}
   217cc:	e8bd 81f0 	ldmia.w	sp!, {r4, r5, r6, r7, r8, pc}
		crypto_bignum_bn2bin(*bn, (uint8_t *)data + *offs);
   217d0:	4429      	add	r1, r5
   217d2:	6830      	ldr	r0, [r6, #0]
   217d4:	f000 fe3a 	bl	2244c <crypto_bignum_bn2bin>
   217d8:	e7f5      	b.n	217c6 <op_attr_bignum_to_binary+0x36>
		return TEE_ERROR_OVERFLOW;
   217da:	4805      	ldr	r0, [pc, #20]	@ (217f0 <op_attr_bignum_to_binary+0x60>)
   217dc:	e7f6      	b.n	217cc <op_attr_bignum_to_binary+0x3c>
		return TEE_ERROR_OVERFLOW;
   217de:	4804      	ldr	r0, [pc, #16]	@ (217f0 <op_attr_bignum_to_binary+0x60>)
   217e0:	e7f4      	b.n	217cc <op_attr_bignum_to_binary+0x3c>
	(*offs) = next_offs;
   217e2:	6021      	str	r1, [r4, #0]
	if (ADD_OVERFLOW(*offs, n, &next_offs))
   217e4:	eb10 0801 	adds.w	r8, r0, r1
   217e8:	d3ed      	bcc.n	217c6 <op_attr_bignum_to_binary+0x36>
		return TEE_ERROR_OVERFLOW;
   217ea:	4801      	ldr	r0, [pc, #4]	@ (217f0 <op_attr_bignum_to_binary+0x60>)
   217ec:	e7ee      	b.n	217cc <op_attr_bignum_to_binary+0x3c>
   217ee:	bf00      	nop
   217f0:	ffff300f 	.word	0xffff300f

000217f4 <op_attr_bignum_to_user>:
{
   217f4:	b5f0      	push	{r4, r5, r6, r7, lr}
   217f6:	b085      	sub	sp, #20
   217f8:	4607      	mov	r7, r0
   217fa:	4616      	mov	r6, r2
   217fc:	461c      	mov	r4, r3
	res = tee_svc_copy_from_user(&s, size, sizeof(s));
   217fe:	2208      	movs	r2, #8
   21800:	4619      	mov	r1, r3
   21802:	4668      	mov	r0, sp
   21804:	f000 f959 	bl	21aba <tee_svc_copy_from_user>
	if (res != TEE_SUCCESS)
   21808:	4605      	mov	r5, r0
   2180a:	b110      	cbz	r0, 21812 <op_attr_bignum_to_user+0x1e>
}
   2180c:	4628      	mov	r0, r5
   2180e:	b005      	add	sp, #20
   21810:	bdf0      	pop	{r4, r5, r6, r7, pc}
	req_size = crypto_bignum_num_bytes(*bn);
   21812:	6838      	ldr	r0, [r7, #0]
   21814:	f000 fe08 	bl	22428 <crypto_bignum_num_bytes>
   21818:	9002      	str	r0, [sp, #8]
   2181a:	2300      	movs	r3, #0
   2181c:	9303      	str	r3, [sp, #12]
	res = tee_svc_copy_to_user(size, &req_size, sizeof(req_size));
   2181e:	2208      	movs	r2, #8
   21820:	eb0d 0102 	add.w	r1, sp, r2
   21824:	4620      	mov	r0, r4
   21826:	f000 f94d 	bl	21ac4 <tee_svc_copy_to_user>
	if (res != TEE_SUCCESS)
   2182a:	4605      	mov	r5, r0
   2182c:	2800      	cmp	r0, #0
   2182e:	d1ed      	bne.n	2180c <op_attr_bignum_to_user+0x18>
	if (!req_size)
   21830:	9a02      	ldr	r2, [sp, #8]
   21832:	9b03      	ldr	r3, [sp, #12]
   21834:	ea52 0103 	orrs.w	r1, r2, r3
   21838:	d0e8      	beq.n	2180c <op_attr_bignum_to_user+0x18>
	if (s < req_size)
   2183a:	9900      	ldr	r1, [sp, #0]
   2183c:	4291      	cmp	r1, r2
   2183e:	9a01      	ldr	r2, [sp, #4]
   21840:	419a      	sbcs	r2, r3
   21842:	d304      	bcc.n	2184e <op_attr_bignum_to_user+0x5a>
	crypto_bignum_bn2bin(*bn, buffer);
   21844:	4631      	mov	r1, r6
   21846:	6838      	ldr	r0, [r7, #0]
   21848:	f000 fe00 	bl	2244c <crypto_bignum_bn2bin>
	return TEE_SUCCESS;
   2184c:	e7de      	b.n	2180c <op_attr_bignum_to_user+0x18>
		return TEE_ERROR_SHORT_BUFFER;
   2184e:	4d01      	ldr	r5, [pc, #4]	@ (21854 <op_attr_bignum_to_user+0x60>)
   21850:	e7dc      	b.n	2180c <op_attr_bignum_to_user+0x18>
   21852:	bf00      	nop
   21854:	ffff0010 	.word	0xffff0010

00021858 <op_attr_secret_value_to_user>:
{
   21858:	b570      	push	{r4, r5, r6, lr}
   2185a:	b084      	sub	sp, #16
   2185c:	4605      	mov	r5, r0
   2185e:	4616      	mov	r6, r2
   21860:	461c      	mov	r4, r3
	res = tee_svc_copy_from_user(&s, size, sizeof(s));
   21862:	2208      	movs	r2, #8
   21864:	4619      	mov	r1, r3
   21866:	eb0d 0002 	add.w	r0, sp, r2
   2186a:	f000 f926 	bl	21aba <tee_svc_copy_from_user>
	if (res != TEE_SUCCESS)
   2186e:	4603      	mov	r3, r0
   21870:	b110      	cbz	r0, 21878 <op_attr_secret_value_to_user+0x20>
}
   21872:	4618      	mov	r0, r3
   21874:	b004      	add	sp, #16
   21876:	bd70      	pop	{r4, r5, r6, pc}
	key_size = key->key_size;
   21878:	682b      	ldr	r3, [r5, #0]
   2187a:	9300      	str	r3, [sp, #0]
   2187c:	2300      	movs	r3, #0
   2187e:	9301      	str	r3, [sp, #4]
	res = tee_svc_copy_to_user(size, &key_size, sizeof(key_size));
   21880:	2208      	movs	r2, #8
   21882:	4669      	mov	r1, sp
   21884:	4620      	mov	r0, r4
   21886:	f000 f91d 	bl	21ac4 <tee_svc_copy_to_user>
	if (res != TEE_SUCCESS)
   2188a:	4603      	mov	r3, r0
   2188c:	2800      	cmp	r0, #0
   2188e:	d1f0      	bne.n	21872 <op_attr_secret_value_to_user+0x1a>
	if (s < key->key_size)
   21890:	682a      	ldr	r2, [r5, #0]
   21892:	9b02      	ldr	r3, [sp, #8]
   21894:	4293      	cmp	r3, r2
   21896:	9b03      	ldr	r3, [sp, #12]
   21898:	f173 0300 	sbcs.w	r3, r3, #0
   2189c:	d306      	bcc.n	218ac <op_attr_secret_value_to_user+0x54>
	return tee_svc_copy_to_user(buffer, key + 1, key->key_size);
   2189e:	f105 0108 	add.w	r1, r5, #8
   218a2:	4630      	mov	r0, r6
   218a4:	f000 f90e 	bl	21ac4 <tee_svc_copy_to_user>
   218a8:	4603      	mov	r3, r0
   218aa:	e7e2      	b.n	21872 <op_attr_secret_value_to_user+0x1a>
		return TEE_ERROR_SHORT_BUFFER;
   218ac:	4b00      	ldr	r3, [pc, #0]	@ (218b0 <op_attr_secret_value_to_user+0x58>)
   218ae:	e7e0      	b.n	21872 <op_attr_secret_value_to_user+0x1a>
   218b0:	ffff0010 	.word	0xffff0010

000218b4 <op_attr_secret_value_clear>:
{
   218b4:	b508      	push	{r3, lr}
   218b6:	4603      	mov	r3, r0
	key->key_size = 0;
   218b8:	2100      	movs	r1, #0
   218ba:	f840 1b08 	str.w	r1, [r0], #8
	memset(key + 1, 0, key->alloc_size);
   218be:	685a      	ldr	r2, [r3, #4]
   218c0:	f002 f828 	bl	23914 <memset>
}
   218c4:	bd08      	pop	{r3, pc}
	...

000218c8 <op_attr_secret_value_from_obj>:
{
   218c8:	b538      	push	{r3, r4, r5, lr}
	if (src_key->key_size > key->alloc_size)
   218ca:	680a      	ldr	r2, [r1, #0]
   218cc:	6843      	ldr	r3, [r0, #4]
   218ce:	429a      	cmp	r2, r3
   218d0:	d809      	bhi.n	218e6 <op_attr_secret_value_from_obj+0x1e>
   218d2:	4604      	mov	r4, r0
   218d4:	460d      	mov	r5, r1
	memcpy(key + 1, src_key + 1, src_key->key_size);
   218d6:	3108      	adds	r1, #8
   218d8:	3008      	adds	r0, #8
   218da:	f000 ffd9 	bl	22890 <memcpy>
	key->key_size = src_key->key_size;
   218de:	682b      	ldr	r3, [r5, #0]
   218e0:	6023      	str	r3, [r4, #0]
	return TEE_SUCCESS;
   218e2:	2000      	movs	r0, #0
}
   218e4:	bd38      	pop	{r3, r4, r5, pc}
		return TEE_ERROR_BAD_STATE;
   218e6:	4801      	ldr	r0, [pc, #4]	@ (218ec <op_attr_secret_value_from_obj+0x24>)
   218e8:	e7fc      	b.n	218e4 <op_attr_secret_value_from_obj+0x1c>
   218ea:	bf00      	nop
   218ec:	ffff0007 	.word	0xffff0007

000218f0 <op_attr_secret_value_from_user>:
{
   218f0:	b538      	push	{r3, r4, r5, lr}
	if (size > key->alloc_size)
   218f2:	6843      	ldr	r3, [r0, #4]
   218f4:	4293      	cmp	r3, r2
   218f6:	d307      	bcc.n	21908 <op_attr_secret_value_from_user+0x18>
   218f8:	4604      	mov	r4, r0
   218fa:	4615      	mov	r5, r2
	memcpy(key + 1, buffer, size);
   218fc:	3008      	adds	r0, #8
   218fe:	f000 ffc7 	bl	22890 <memcpy>
	key->key_size = size;
   21902:	6025      	str	r5, [r4, #0]
	return TEE_SUCCESS;
   21904:	2000      	movs	r0, #0
}
   21906:	bd38      	pop	{r3, r4, r5, pc}
		return TEE_ERROR_SECURITY;
   21908:	4800      	ldr	r0, [pc, #0]	@ (2190c <op_attr_secret_value_from_user+0x1c>)
   2190a:	e7fc      	b.n	21906 <op_attr_secret_value_from_user+0x16>
   2190c:	ffff000f 	.word	0xffff000f

00021910 <cryp_state_free>:
	}
	return TEE_ERROR_BAD_PARAMETERS;
}

static void cryp_state_free(struct user_ta_ctx *utc, struct tee_cryp_state *cs)
{
   21910:	b530      	push	{r4, r5, lr}
   21912:	b083      	sub	sp, #12
   21914:	4605      	mov	r5, r0
   21916:	460c      	mov	r4, r1
	struct tee_obj *o;

	if (tee_obj_get(utc, cs->key1, &o) == TEE_SUCCESS)
   21918:	aa01      	add	r2, sp, #4
   2191a:	6909      	ldr	r1, [r1, #16]
   2191c:	f000 f8d8 	bl	21ad0 <tee_obj_get>
   21920:	b308      	cbz	r0, 21966 <cryp_state_free+0x56>
		tee_obj_close(utc, o);
	if (tee_obj_get(utc, cs->key2, &o) == TEE_SUCCESS)
   21922:	aa01      	add	r2, sp, #4
   21924:	6961      	ldr	r1, [r4, #20]
   21926:	4628      	mov	r0, r5
   21928:	f000 f8d2 	bl	21ad0 <tee_obj_get>
   2192c:	b300      	cbz	r0, 21970 <cryp_state_free+0x60>
		tee_obj_close(utc, o);

	TAILQ_REMOVE(&utc->cryp_states, cs, link);
   2192e:	6823      	ldr	r3, [r4, #0]
   21930:	b31b      	cbz	r3, 2197a <cryp_state_free+0x6a>
   21932:	6862      	ldr	r2, [r4, #4]
   21934:	605a      	str	r2, [r3, #4]
   21936:	6863      	ldr	r3, [r4, #4]
   21938:	6822      	ldr	r2, [r4, #0]
   2193a:	601a      	str	r2, [r3, #0]
	if (cs->ctx_finalize != NULL)
   2193c:	69e3      	ldr	r3, [r4, #28]
   2193e:	b113      	cbz	r3, 21946 <cryp_state_free+0x36>
		cs->ctx_finalize(cs->ctx, cs->algo);
   21940:	68a1      	ldr	r1, [r4, #8]
   21942:	69a0      	ldr	r0, [r4, #24]
   21944:	4798      	blx	r3

	switch (TEE_ALG_GET_CLASS(cs->algo)) {
   21946:	68a1      	ldr	r1, [r4, #8]
   21948:	0f0b      	lsrs	r3, r1, #28
   2194a:	2b03      	cmp	r3, #3
   2194c:	d01c      	beq.n	21988 <cryp_state_free+0x78>
   2194e:	2b05      	cmp	r3, #5
   21950:	d016      	beq.n	21980 <cryp_state_free+0x70>
   21952:	2b01      	cmp	r3, #1
   21954:	d11c      	bne.n	21990 <cryp_state_free+0x80>
	case TEE_OPERATION_CIPHER:
		crypto_cipher_free_ctx(cs->ctx, cs->algo);
   21956:	69a0      	ldr	r0, [r4, #24]
   21958:	f009 f916 	bl	2ab88 <crypto_cipher_free_ctx>
		break;
	default:
		assert(!cs->ctx);
	}

	TEE_Free(cs);
   2195c:	4620      	mov	r0, r4
   2195e:	f7ff fe17 	bl	21590 <TEE_Free>
}
   21962:	b003      	add	sp, #12
   21964:	bd30      	pop	{r4, r5, pc}
		tee_obj_close(utc, o);
   21966:	9901      	ldr	r1, [sp, #4]
   21968:	4628      	mov	r0, r5
   2196a:	f000 f8cd 	bl	21b08 <tee_obj_close>
   2196e:	e7d8      	b.n	21922 <cryp_state_free+0x12>
		tee_obj_close(utc, o);
   21970:	9901      	ldr	r1, [sp, #4]
   21972:	4628      	mov	r0, r5
   21974:	f000 f8c8 	bl	21b08 <tee_obj_close>
   21978:	e7d9      	b.n	2192e <cryp_state_free+0x1e>
	TAILQ_REMOVE(&utc->cryp_states, cs, link);
   2197a:	6863      	ldr	r3, [r4, #4]
   2197c:	622b      	str	r3, [r5, #32]
   2197e:	e7da      	b.n	21936 <cryp_state_free+0x26>
		crypto_hash_free_ctx(cs->ctx, cs->algo);
   21980:	69a0      	ldr	r0, [r4, #24]
   21982:	f009 f8e5 	bl	2ab50 <crypto_hash_free_ctx>
		break;
   21986:	e7e9      	b.n	2195c <cryp_state_free+0x4c>
		crypto_mac_free_ctx(cs->ctx, cs->algo);
   21988:	69a0      	ldr	r0, [r4, #24]
   2198a:	f009 f915 	bl	2abb8 <crypto_mac_free_ctx>
		break;
   2198e:	e7e5      	b.n	2195c <cryp_state_free+0x4c>
		assert(!cs->ctx);
   21990:	69a3      	ldr	r3, [r4, #24]
   21992:	2b00      	cmp	r3, #0
   21994:	d0e2      	beq.n	2195c <cryp_state_free+0x4c>
   21996:	4b03      	ldr	r3, [pc, #12]	@ (219a4 <cryp_state_free+0x94>)
   21998:	4a03      	ldr	r2, [pc, #12]	@ (219a8 <cryp_state_free+0x98>)
   2199a:	f44f 61ed 	mov.w	r1, #1896	@ 0x768
   2199e:	4803      	ldr	r0, [pc, #12]	@ (219ac <cryp_state_free+0x9c>)
   219a0:	f001 fc36 	bl	23210 <__assert_func>
   219a4:	0002ff80 	.word	0x0002ff80
   219a8:	00030428 	.word	0x00030428
   219ac:	0002ff8c 	.word	0x0002ff8c

000219b0 <op_attr_secret_value_from_binary>:
	if (!data || (*offs + sizeof(field)) > data_len)
   219b0:	b1e9      	cbz	r1, 219ee <op_attr_secret_value_from_binary+0x3e>
{
   219b2:	b538      	push	{r3, r4, r5, lr}
   219b4:	461c      	mov	r4, r3
   219b6:	468c      	mov	ip, r1
	if (!data || (*offs + sizeof(field)) > data_len)
   219b8:	681d      	ldr	r5, [r3, #0]
   219ba:	1d2b      	adds	r3, r5, #4
   219bc:	429a      	cmp	r2, r3
   219be:	d318      	bcc.n	219f2 <op_attr_secret_value_from_binary+0x42>
	memcpy(&field, data + *offs, sizeof(field));
   219c0:	594d      	ldr	r5, [r1, r5]
	*v = TEE_U32_FROM_BIG_ENDIAN(field);
   219c2:	ba2d      	rev	r5, r5
	(*offs) += sizeof(field);
   219c4:	6023      	str	r3, [r4, #0]
	if ((*offs + s) > data_len)
   219c6:	442b      	add	r3, r5
   219c8:	4293      	cmp	r3, r2
   219ca:	d814      	bhi.n	219f6 <op_attr_secret_value_from_binary+0x46>
	if (s > key->alloc_size)
   219cc:	6843      	ldr	r3, [r0, #4]
   219ce:	42ab      	cmp	r3, r5
   219d0:	d201      	bcs.n	219d6 <op_attr_secret_value_from_binary+0x26>
		return false;
   219d2:	2000      	movs	r0, #0
   219d4:	e00e      	b.n	219f4 <op_attr_secret_value_from_binary+0x44>
	key->key_size = s;
   219d6:	f840 5b08 	str.w	r5, [r0], #8
	memcpy(key + 1, (const uint8_t *)data + *offs, s);
   219da:	6821      	ldr	r1, [r4, #0]
   219dc:	462a      	mov	r2, r5
   219de:	4461      	add	r1, ip
   219e0:	f000 ff56 	bl	22890 <memcpy>
	(*offs) += s;
   219e4:	6823      	ldr	r3, [r4, #0]
   219e6:	442b      	add	r3, r5
   219e8:	6023      	str	r3, [r4, #0]
	return true;
   219ea:	2001      	movs	r0, #1
   219ec:	e002      	b.n	219f4 <op_attr_secret_value_from_binary+0x44>
		return false;
   219ee:	2000      	movs	r0, #0
}
   219f0:	4770      	bx	lr
		return false;
   219f2:	2000      	movs	r0, #0
}
   219f4:	bd38      	pop	{r3, r4, r5, pc}
		return false;
   219f6:	2000      	movs	r0, #0
   219f8:	e7fc      	b.n	219f4 <op_attr_secret_value_from_binary+0x44>
	...

000219fc <op_attr_secret_value_to_binary>:
{
   219fc:	b5f8      	push	{r3, r4, r5, r6, r7, lr}
	if (ADD_OVERFLOW(*offs, sizeof(field), &next_offs))
   219fe:	681d      	ldr	r5, [r3, #0]
   21a00:	1d2f      	adds	r7, r5, #4
   21a02:	d219      	bcs.n	21a38 <op_attr_secret_value_to_binary+0x3c>
   21a04:	460e      	mov	r6, r1
   21a06:	461c      	mov	r4, r3
   21a08:	463b      	mov	r3, r7
	if (data && next_offs <= data_len) {
   21a0a:	b1c9      	cbz	r1, 21a40 <op_attr_secret_value_to_binary+0x44>
   21a0c:	42ba      	cmp	r2, r7
   21a0e:	d302      	bcc.n	21a16 <op_attr_secret_value_to_binary+0x1a>
		field = TEE_U32_TO_BIG_ENDIAN(v);
   21a10:	6801      	ldr	r1, [r0, #0]
   21a12:	ba09      	rev	r1, r1
		memcpy(data + *offs, &field, sizeof(field));
   21a14:	5171      	str	r1, [r6, r5]
	(*offs) = next_offs;
   21a16:	6027      	str	r7, [r4, #0]
	if (ADD_OVERFLOW(*offs, key->key_size, &next_offs))
   21a18:	6801      	ldr	r1, [r0, #0]
   21a1a:	185b      	adds	r3, r3, r1
   21a1c:	d20e      	bcs.n	21a3c <op_attr_secret_value_to_binary+0x40>
   21a1e:	461d      	mov	r5, r3
	if (data && next_offs <= data_len)
   21a20:	429a      	cmp	r2, r3
   21a22:	d202      	bcs.n	21a2a <op_attr_secret_value_to_binary+0x2e>
	(*offs) = next_offs;
   21a24:	6025      	str	r5, [r4, #0]
	return TEE_SUCCESS;
   21a26:	2000      	movs	r0, #0
}
   21a28:	bdf8      	pop	{r3, r4, r5, r6, r7, pc}
		memcpy((uint8_t *)data + *offs, key + 1, key->key_size);
   21a2a:	460a      	mov	r2, r1
   21a2c:	f100 0108 	add.w	r1, r0, #8
   21a30:	19f0      	adds	r0, r6, r7
   21a32:	f000 ff2d 	bl	22890 <memcpy>
   21a36:	e7f5      	b.n	21a24 <op_attr_secret_value_to_binary+0x28>
		return TEE_ERROR_OVERFLOW;
   21a38:	4804      	ldr	r0, [pc, #16]	@ (21a4c <op_attr_secret_value_to_binary+0x50>)
   21a3a:	e7f5      	b.n	21a28 <op_attr_secret_value_to_binary+0x2c>
		return TEE_ERROR_OVERFLOW;
   21a3c:	4803      	ldr	r0, [pc, #12]	@ (21a4c <op_attr_secret_value_to_binary+0x50>)
   21a3e:	e7f3      	b.n	21a28 <op_attr_secret_value_to_binary+0x2c>
	(*offs) = next_offs;
   21a40:	6027      	str	r7, [r4, #0]
	if (ADD_OVERFLOW(*offs, key->key_size, &next_offs))
   21a42:	6805      	ldr	r5, [r0, #0]
   21a44:	197d      	adds	r5, r7, r5
   21a46:	d3ed      	bcc.n	21a24 <op_attr_secret_value_to_binary+0x28>
		return TEE_ERROR_OVERFLOW;
   21a48:	4800      	ldr	r0, [pc, #0]	@ (21a4c <op_attr_secret_value_to_binary+0x50>)
   21a4a:	e7ed      	b.n	21a28 <op_attr_secret_value_to_binary+0x2c>
   21a4c:	ffff300f 	.word	0xffff300f

00021a50 <tee_obj_attr_free>:
	if (!o->attr)
   21a50:	6ac3      	ldr	r3, [r0, #44]	@ 0x2c
   21a52:	b303      	cbz	r3, 21a96 <tee_obj_attr_free+0x46>
{
   21a54:	e92d 41f0 	stmdb	sp!, {r4, r5, r6, r7, r8, lr}
   21a58:	4607      	mov	r7, r0
	tp = tee_svc_find_type_props(o->info.objectType);
   21a5a:	6880      	ldr	r0, [r0, #8]
   21a5c:	f7ff fe46 	bl	216ec <tee_svc_find_type_props>
	if (!tp)
   21a60:	4606      	mov	r6, r0
   21a62:	b1b0      	cbz	r0, 21a92 <tee_obj_attr_free+0x42>
	for (n = 0; n < tp->num_type_attrs; n++) {
   21a64:	7ac3      	ldrb	r3, [r0, #11]
   21a66:	b1a3      	cbz	r3, 21a92 <tee_obj_attr_free+0x42>
   21a68:	2400      	movs	r4, #0
   21a6a:	4625      	mov	r5, r4
		attr_ops[ta->ops_index].free((uint8_t *)o->attr + ta->raw_offs);
   21a6c:	f8df 8028 	ldr.w	r8, [pc, #40]	@ 21a98 <tee_obj_attr_free+0x48>
		const struct tee_cryp_obj_type_attrs *ta = tp->type_attrs + n;
   21a70:	68f3      	ldr	r3, [r6, #12]
   21a72:	4423      	add	r3, r4
		attr_ops[ta->ops_index].free((uint8_t *)o->attr + ta->raw_offs);
   21a74:	8918      	ldrh	r0, [r3, #8]
   21a76:	6afa      	ldr	r2, [r7, #44]	@ 0x2c
   21a78:	88db      	ldrh	r3, [r3, #6]
   21a7a:	ebc3 03c3 	rsb	r3, r3, r3, lsl #3
   21a7e:	eb08 0383 	add.w	r3, r8, r3, lsl #2
   21a82:	695b      	ldr	r3, [r3, #20]
   21a84:	4410      	add	r0, r2
   21a86:	4798      	blx	r3
	for (n = 0; n < tp->num_type_attrs; n++) {
   21a88:	3501      	adds	r5, #1
   21a8a:	340c      	adds	r4, #12
   21a8c:	7af3      	ldrb	r3, [r6, #11]
   21a8e:	42ab      	cmp	r3, r5
   21a90:	d8ee      	bhi.n	21a70 <tee_obj_attr_free+0x20>
}
   21a92:	e8bd 81f0 	ldmia.w	sp!, {r4, r5, r6, r7, r8, pc}
   21a96:	4770      	bx	lr
   21a98:	00030438 	.word	0x00030438

00021a9c <tee_svc_cryp_free_states>:
//
//	return TEE_SUCCESS;
//}
//
void tee_svc_cryp_free_states(struct user_ta_ctx *utc)
{
   21a9c:	b510      	push	{r4, lr}
   21a9e:	4604      	mov	r4, r0
	struct tee_cryp_state_head *states = &utc->cryp_states;

	while (!TAILQ_EMPTY(states))
   21aa0:	69c1      	ldr	r1, [r0, #28]
   21aa2:	b129      	cbz	r1, 21ab0 <tee_svc_cryp_free_states+0x14>
		cryp_state_free(utc, TAILQ_FIRST(states));
   21aa4:	4620      	mov	r0, r4
   21aa6:	f7ff ff33 	bl	21910 <cryp_state_free>
	while (!TAILQ_EMPTY(states))
   21aaa:	69e1      	ldr	r1, [r4, #28]
   21aac:	2900      	cmp	r1, #0
   21aae:	d1f9      	bne.n	21aa4 <tee_svc_cryp_free_states+0x8>
}
   21ab0:	bd10      	pop	{r4, pc}

00021ab2 <tee_cryp_init>:
	plat_prng_add_jitter_entropy();
#endif
}

/*static*/ TEE_Result tee_cryp_init(void)
{
   21ab2:	b508      	push	{r3, lr}
	return crypto_init();
   21ab4:	f009 f89a 	bl	2abec <crypto_init>
}
   21ab8:	bd08      	pop	{r3, pc}

00021aba <tee_svc_copy_from_user>:
//	return tee_mmu_check_access_rights(to_user_ta_ctx(s->ctx), flags,
//					   (uaddr_t)buf, len);
//}
//
TEE_Result tee_svc_copy_from_user(void *kaddr, const void *uaddr, size_t len)
{
   21aba:	b508      	push	{r3, lr}
//					TEE_MEMORY_ACCESS_ANY_OWNER,
//					(uaddr_t)uaddr, len);
//	if (res != TEE_SUCCESS)
//		return res;
//
	memcpy(kaddr, uaddr, len);
   21abc:	f000 fee8 	bl	22890 <memcpy>
	return TEE_SUCCESS;
}
   21ac0:	2000      	movs	r0, #0
   21ac2:	bd08      	pop	{r3, pc}

00021ac4 <tee_svc_copy_to_user>:

TEE_Result tee_svc_copy_to_user(void *uaddr, const void *kaddr, size_t len)
{
   21ac4:	b508      	push	{r3, lr}
//					TEE_MEMORY_ACCESS_ANY_OWNER,
//					(uaddr_t)uaddr, len);
//	if (res != TEE_SUCCESS)
//		return res;

	memcpy(uaddr, kaddr, len);
   21ac6:	f000 fee3 	bl	22890 <memcpy>
	return TEE_SUCCESS;
}
   21aca:	2000      	movs	r0, #0
   21acc:	bd08      	pop	{r3, pc}
	...

00021ad0 <tee_obj_get>:
TEE_Result tee_obj_get(struct user_ta_ctx *utc, uint32_t obj_id,
		       struct tee_obj **obj)
{
	struct tee_obj *o;

	TAILQ_FOREACH(o, &utc->objects, link) {
   21ad0:	6a43      	ldr	r3, [r0, #36]	@ 0x24
   21ad2:	b153      	cbz	r3, 21aea <tee_obj_get+0x1a>
		if (obj_id == (vaddr_t)o) {
   21ad4:	428b      	cmp	r3, r1
   21ad6:	d003      	beq.n	21ae0 <tee_obj_get+0x10>
	TAILQ_FOREACH(o, &utc->objects, link) {
   21ad8:	681b      	ldr	r3, [r3, #0]
   21ada:	b123      	cbz	r3, 21ae6 <tee_obj_get+0x16>
		if (obj_id == (vaddr_t)o) {
   21adc:	428b      	cmp	r3, r1
   21ade:	d1fb      	bne.n	21ad8 <tee_obj_get+0x8>
			*obj = o;
   21ae0:	6013      	str	r3, [r2, #0]
			return TEE_SUCCESS;
   21ae2:	2000      	movs	r0, #0
   21ae4:	4770      	bx	lr
		}
	}
	return TEE_ERROR_BAD_PARAMETERS;
   21ae6:	4802      	ldr	r0, [pc, #8]	@ (21af0 <tee_obj_get+0x20>)
   21ae8:	4770      	bx	lr
   21aea:	4801      	ldr	r0, [pc, #4]	@ (21af0 <tee_obj_get+0x20>)
}
   21aec:	4770      	bx	lr
   21aee:	bf00      	nop
   21af0:	ffff0006 	.word	0xffff0006

00021af4 <tee_obj_free>:
	return TEE_Malloc(sizeof(struct tee_obj), TEE_MALLOC_FILL_ZERO);
}

void tee_obj_free(struct tee_obj *o)
{
	if (o) {
   21af4:	b138      	cbz	r0, 21b06 <tee_obj_free+0x12>
{
   21af6:	b510      	push	{r4, lr}
   21af8:	4604      	mov	r4, r0
		tee_obj_attr_free(o);
   21afa:	f7ff ffa9 	bl	21a50 <tee_obj_attr_free>
		//TEE_Free(o->attr);
		TEE_Free(o);
   21afe:	4620      	mov	r0, r4
   21b00:	f7ff fd46 	bl	21590 <TEE_Free>
	}
}
   21b04:	bd10      	pop	{r4, pc}
   21b06:	4770      	bx	lr

00021b08 <tee_obj_close>:
{
   21b08:	b510      	push	{r4, lr}
   21b0a:	460c      	mov	r4, r1
	TAILQ_REMOVE(&utc->objects, o, link);
   21b0c:	680b      	ldr	r3, [r1, #0]
   21b0e:	b1ab      	cbz	r3, 21b3c <tee_obj_close+0x34>
   21b10:	684a      	ldr	r2, [r1, #4]
   21b12:	605a      	str	r2, [r3, #4]
   21b14:	6863      	ldr	r3, [r4, #4]
   21b16:	6822      	ldr	r2, [r4, #0]
   21b18:	601a      	str	r2, [r3, #0]
	if ((o->info.handleFlags & TEE_HANDLE_FLAG_PERSISTENT)) {
   21b1a:	6a23      	ldr	r3, [r4, #32]
   21b1c:	f413 3f80 	tst.w	r3, #65536	@ 0x10000
   21b20:	d008      	beq.n	21b34 <tee_obj_close+0x2c>
		o->pobj->fops->close(&o->fh);
   21b22:	6b63      	ldr	r3, [r4, #52]	@ 0x34
   21b24:	6adb      	ldr	r3, [r3, #44]	@ 0x2c
   21b26:	689b      	ldr	r3, [r3, #8]
   21b28:	f104 0038 	add.w	r0, r4, #56	@ 0x38
   21b2c:	4798      	blx	r3
		tee_pobj_release(o->pobj);
   21b2e:	6b60      	ldr	r0, [r4, #52]	@ 0x34
   21b30:	f000 f812 	bl	21b58 <tee_pobj_release>
	tee_obj_free(o);
   21b34:	4620      	mov	r0, r4
   21b36:	f7ff ffdd 	bl	21af4 <tee_obj_free>
}
   21b3a:	bd10      	pop	{r4, pc}
	TAILQ_REMOVE(&utc->objects, o, link);
   21b3c:	684b      	ldr	r3, [r1, #4]
   21b3e:	6283      	str	r3, [r0, #40]	@ 0x28
   21b40:	e7e8      	b.n	21b14 <tee_obj_close+0xc>

00021b42 <tee_obj_close_all>:
{
   21b42:	b510      	push	{r4, lr}
   21b44:	4604      	mov	r4, r0
	while (!TAILQ_EMPTY(objects))
   21b46:	6a41      	ldr	r1, [r0, #36]	@ 0x24
   21b48:	b129      	cbz	r1, 21b56 <tee_obj_close_all+0x14>
		tee_obj_close(utc, TAILQ_FIRST(objects));
   21b4a:	4620      	mov	r0, r4
   21b4c:	f7ff ffdc 	bl	21b08 <tee_obj_close>
	while (!TAILQ_EMPTY(objects))
   21b50:	6a61      	ldr	r1, [r4, #36]	@ 0x24
   21b52:	2900      	cmp	r1, #0
   21b54:	d1f9      	bne.n	21b4a <tee_obj_close_all+0x8>
}
   21b56:	bd10      	pop	{r4, pc}

00021b58 <tee_pobj_release>:
//	mutex_unlock(&pobjs_mutex);
	return res;
}

TEE_Result tee_pobj_release(struct tee_pobj *obj)
{
   21b58:	b538      	push	{r3, r4, r5, lr}
	if (obj == NULL)
   21b5a:	b1b0      	cbz	r0, 21b8a <tee_pobj_release+0x32>
   21b5c:	4605      	mov	r5, r0
		return TEE_ERROR_BAD_PARAMETERS;

//	mutex_lock(&pobjs_mutex);
	obj->refcnt--;
   21b5e:	6884      	ldr	r4, [r0, #8]
   21b60:	3c01      	subs	r4, #1
   21b62:	6084      	str	r4, [r0, #8]
	if (obj->refcnt == 0) {
   21b64:	b99c      	cbnz	r4, 21b8e <tee_pobj_release+0x36>
		TAILQ_REMOVE(&tee_pobjs, obj, link);
   21b66:	6803      	ldr	r3, [r0, #0]
   21b68:	b15b      	cbz	r3, 21b82 <tee_pobj_release+0x2a>
   21b6a:	6842      	ldr	r2, [r0, #4]
   21b6c:	605a      	str	r2, [r3, #4]
   21b6e:	686b      	ldr	r3, [r5, #4]
   21b70:	682a      	ldr	r2, [r5, #0]
   21b72:	601a      	str	r2, [r3, #0]
		TEE_Free(obj->obj_id);
   21b74:	69e8      	ldr	r0, [r5, #28]
   21b76:	f7ff fd0b 	bl	21590 <TEE_Free>
		TEE_Free(obj);
   21b7a:	4628      	mov	r0, r5
   21b7c:	f7ff fd08 	bl	21590 <TEE_Free>
   21b80:	e006      	b.n	21b90 <tee_pobj_release+0x38>
		TAILQ_REMOVE(&tee_pobjs, obj, link);
   21b82:	6842      	ldr	r2, [r0, #4]
   21b84:	4b03      	ldr	r3, [pc, #12]	@ (21b94 <tee_pobj_release+0x3c>)
   21b86:	605a      	str	r2, [r3, #4]
   21b88:	e7f1      	b.n	21b6e <tee_pobj_release+0x16>
		return TEE_ERROR_BAD_PARAMETERS;
   21b8a:	4c03      	ldr	r4, [pc, #12]	@ (21b98 <tee_pobj_release+0x40>)
   21b8c:	e000      	b.n	21b90 <tee_pobj_release+0x38>
	}
//	mutex_unlock(&pobjs_mutex);

	return TEE_SUCCESS;
   21b8e:	2400      	movs	r4, #0
}
   21b90:	4620      	mov	r0, r4
   21b92:	bd38      	pop	{r3, r4, r5, pc}
   21b94:	20010010 	.word	0x20010010
   21b98:	ffff0006 	.word	0xffff0006

00021b9c <tee_uuid_from_octets>:
	memcpy(d + 8, s->clockSeqAndNode, sizeof(s->clockSeqAndNode));
}

void tee_uuid_from_octets(TEE_UUID *d, const uint8_t *s)
{
	d->timeLow = SHIFT_U32(s[0], 24) | SHIFT_U32(s[1], 16) |
   21b9c:	780a      	ldrb	r2, [r1, #0]
   21b9e:	784b      	ldrb	r3, [r1, #1]
   21ba0:	041b      	lsls	r3, r3, #16
   21ba2:	ea43 6302 	orr.w	r3, r3, r2, lsl #24
		     SHIFT_U32(s[2], 8) | s[3];
   21ba6:	78ca      	ldrb	r2, [r1, #3]
   21ba8:	4313      	orrs	r3, r2
   21baa:	788a      	ldrb	r2, [r1, #2]
   21bac:	ea43 2302 	orr.w	r3, r3, r2, lsl #8
	d->timeLow = SHIFT_U32(s[0], 24) | SHIFT_U32(s[1], 16) |
   21bb0:	6003      	str	r3, [r0, #0]
	d->timeMid = SHIFT_U32(s[4], 8) | s[5];
   21bb2:	790a      	ldrb	r2, [r1, #4]
   21bb4:	794b      	ldrb	r3, [r1, #5]
   21bb6:	ea43 2302 	orr.w	r3, r3, r2, lsl #8
   21bba:	8083      	strh	r3, [r0, #4]
	d->timeHiAndVersion = SHIFT_U32(s[6], 8) | s[7];
   21bbc:	798a      	ldrb	r2, [r1, #6]
   21bbe:	79cb      	ldrb	r3, [r1, #7]
   21bc0:	ea43 2302 	orr.w	r3, r3, r2, lsl #8
   21bc4:	80c3      	strh	r3, [r0, #6]
	memcpy(d->clockSeqAndNode, s + 8, sizeof(d->clockSeqAndNode));
   21bc6:	688a      	ldr	r2, [r1, #8]
   21bc8:	68cb      	ldr	r3, [r1, #12]
   21bca:	6082      	str	r2, [r0, #8]
   21bcc:	60c3      	str	r3, [r0, #12]
}
   21bce:	4770      	bx	lr

00021bd0 <tee_ioctl_open_session>:
    }
  }
}

TEEC_Result tee_ioctl_open_session(/*ctx,*/ struct tee_ioctl_buf_data *buf_data)
{
   21bd0:	b510      	push	{r4, lr}
   21bd2:	b088      	sub	sp, #32
  TEE_Result res;
  TEE_ErrorOrigin err;
  struct tee_ta_session *sess = NULL;
   21bd4:	2300      	movs	r3, #0
   21bd6:	9306      	str	r3, [sp, #24]

  struct tee_ioctl_open_session_arg *arg;
  //struct tee_ioctl_param *params;
  TEE_UUID uuid;

  arg = (struct tee_ioctl_open_session_arg *)buf_data->buf_ptr;
   21bd8:	6804      	ldr	r4, [r0, #0]
  //params = (struct tee_ioctl_param *)(arg + 1);

  //uuid_print(arg->uuid);

  tee_uuid_from_octets(&uuid, arg->uuid);
   21bda:	4621      	mov	r1, r4
   21bdc:	a802      	add	r0, sp, #8
   21bde:	f7ff ffdd 	bl	21b9c <tee_uuid_from_octets>
//  tee_ta_context_register(arg->uuid);

  param = (struct tee_ta_param *)(arg + 1);
   21be2:	f104 0338 	add.w	r3, r4, #56	@ 0x38

  res = tee_ta_open_session(&err, &sess, &tee_open_sessions, &uuid, param);
   21be6:	9300      	str	r3, [sp, #0]
   21be8:	ab02      	add	r3, sp, #8
   21bea:	4a0a      	ldr	r2, [pc, #40]	@ (21c14 <tee_ioctl_open_session+0x44>)
   21bec:	a906      	add	r1, sp, #24
   21bee:	a807      	add	r0, sp, #28
   21bf0:	f000 fba4 	bl	2233c <tee_ta_open_session>

  if (res != TEE_SUCCESS)
   21bf4:	4603      	mov	r3, r0
   21bf6:	b958      	cbnz	r0, 21c10 <tee_ioctl_open_session+0x40>
    sess = NULL;

  if (sess)
   21bf8:	9906      	ldr	r1, [sp, #24]
    arg->session = (uint32_t)sess;
   21bfa:	2900      	cmp	r1, #0
   21bfc:	bf14      	ite	ne
   21bfe:	460a      	movne	r2, r1
   21c00:	4602      	moveq	r2, r0
   21c02:	62a2      	str	r2, [r4, #40]	@ 0x28
  else
    arg->session = 0;
  arg->ret = res;
   21c04:	62e3      	str	r3, [r4, #44]	@ 0x2c
  arg->ret_origin = err;
   21c06:	9b07      	ldr	r3, [sp, #28]
   21c08:	6323      	str	r3, [r4, #48]	@ 0x30

  return TEEC_SUCCESS;
}
   21c0a:	2000      	movs	r0, #0
   21c0c:	b008      	add	sp, #32
   21c0e:	bd10      	pop	{r4, pc}
    arg->session = 0;
   21c10:	2200      	movs	r2, #0
   21c12:	e7f6      	b.n	21c02 <tee_ioctl_open_session+0x32>
   21c14:	20010018 	.word	0x20010018

00021c18 <tee_ioctl_invoke>:

TEEC_Result tee_ioctl_invoke(/*ctx,*/ struct tee_ioctl_buf_data *buf_data)
{
   21c18:	b5f0      	push	{r4, r5, r6, r7, lr}
   21c1a:	b095      	sub	sp, #84	@ 0x54
  struct tee_ta_session *sess;
  struct tee_ta_param param;

  uint32_t saved_attr[TEE_NUM_PARAMS];

  arg = (struct optee_msg_arg *)buf_data->buf_ptr;
   21c1c:	6804      	ldr	r4, [r0, #0]

  sess = tee_ta_get_session(arg->session, true, &tee_open_sessions);
   21c1e:	4a5a      	ldr	r2, [pc, #360]	@ (21d88 <tee_ioctl_invoke+0x170>)
   21c20:	2101      	movs	r1, #1
   21c22:	6860      	ldr	r0, [r4, #4]
   21c24:	f000 fb28 	bl	22278 <tee_ta_get_session>

  res = copy_in_params(arg->params, arg->num_params, &param, saved_attr);
   21c28:	6966      	ldr	r6, [r4, #20]
  if (num_params > TEE_NUM_PARAMS)
   21c2a:	2e04      	cmp	r6, #4
   21c2c:	f200 80a9 	bhi.w	21d82 <tee_ioctl_invoke+0x16a>
   21c30:	4607      	mov	r7, r0
  memset(ta_param, 0, sizeof(*ta_param));
   21c32:	2234      	movs	r2, #52	@ 0x34
   21c34:	2100      	movs	r1, #0
   21c36:	a806      	add	r0, sp, #24
   21c38:	f001 fe6c 	bl	23914 <memset>
  for (n = 0; n < num_params; n++) {
   21c3c:	2e00      	cmp	r6, #0
   21c3e:	d04d      	beq.n	21cdc <tee_ioctl_invoke+0xc4>
   21c40:	f104 0318 	add.w	r3, r4, #24
   21c44:	a802      	add	r0, sp, #8
   21c46:	f10d 0c04 	add.w	ip, sp, #4
   21c4a:	ad06      	add	r5, sp, #24
   21c4c:	eb03 1106 	add.w	r1, r3, r6, lsl #4
   21c50:	e00b      	b.n	21c6a <tee_ioctl_invoke+0x52>
      pt[n] = TEE_PARAM_TYPE_NONE;
   21c52:	2600      	movs	r6, #0
   21c54:	f88c 6000 	strb.w	r6, [ip]
      memset(&ta_param->u[n], 0, sizeof(ta_param->u[n]));
   21c58:	606e      	str	r6, [r5, #4]
   21c5a:	60ae      	str	r6, [r5, #8]
   21c5c:	60ee      	str	r6, [r5, #12]
  for (n = 0; n < num_params; n++) {
   21c5e:	3310      	adds	r3, #16
   21c60:	f10c 0c01 	add.w	ip, ip, #1
   21c64:	350c      	adds	r5, #12
   21c66:	428b      	cmp	r3, r1
   21c68:	d038      	beq.n	21cdc <tee_ioctl_invoke+0xc4>
    saved_attr[n] = params[n].attr;
   21c6a:	681a      	ldr	r2, [r3, #0]
   21c6c:	f840 2b04 	str.w	r2, [r0], #4
    attr = saved_attr[n] & OPTEE_MSG_ATTR_TYPE_MASK;
   21c70:	b2d6      	uxtb	r6, r2
    switch (attr) {
   21c72:	2e0b      	cmp	r6, #11
   21c74:	d852      	bhi.n	21d1c <tee_ioctl_invoke+0x104>
   21c76:	f20f 0e08 	addw	lr, pc, #8
   21c7a:	f85e f026 	ldr.w	pc, [lr, r6, lsl #2]
   21c7e:	bf00      	nop
   21c80:	00021c53 	.word	0x00021c53
   21c84:	00021cb1 	.word	0x00021cb1
   21c88:	00021cb1 	.word	0x00021cb1
   21c8c:	00021cb1 	.word	0x00021cb1
   21c90:	00021d1d 	.word	0x00021d1d
   21c94:	00021ccf 	.word	0x00021ccf
   21c98:	00021ccf 	.word	0x00021ccf
   21c9c:	00021ccf 	.word	0x00021ccf
   21ca0:	00021d1d 	.word	0x00021d1d
   21ca4:	00021cbf 	.word	0x00021cbf
   21ca8:	00021cbf 	.word	0x00021cbf
   21cac:	00021cbf 	.word	0x00021cbf
      pt[n] = TEE_PARAM_TYPE_VALUE_INPUT + attr -
   21cb0:	f88c 2000 	strb.w	r2, [ip]
      ta_param->u[n].val.a = params[n].u.value.a;
   21cb4:	685a      	ldr	r2, [r3, #4]
   21cb6:	606a      	str	r2, [r5, #4]
      ta_param->u[n].val.b = params[n].u.value.b;
   21cb8:	689a      	ldr	r2, [r3, #8]
   21cba:	60aa      	str	r2, [r5, #8]
      break;
   21cbc:	e7cf      	b.n	21c5e <tee_ioctl_invoke+0x46>
      pt[n] = TEE_PARAM_TYPE_MEMREF_INPUT + attr -
   21cbe:	3a04      	subs	r2, #4
   21cc0:	f88c 2000 	strb.w	r2, [ip]
      ta_param->u[n].mem.buffer = (void *)params[n].u.tmem.buf_ptr;
   21cc4:	685a      	ldr	r2, [r3, #4]
   21cc6:	606a      	str	r2, [r5, #4]
      ta_param->u[n].mem.size = params[n].u.tmem.size;
   21cc8:	689a      	ldr	r2, [r3, #8]
   21cca:	60aa      	str	r2, [r5, #8]
      break;
   21ccc:	e7c7      	b.n	21c5e <tee_ioctl_invoke+0x46>
      pt[n] = TEE_PARAM_TYPE_MEMREF_INPUT + attr -
   21cce:	f88c 2000 	strb.w	r2, [ip]
      ta_param->u[n].mem.buffer = (void *)params[n].u.rmem.offs;
   21cd2:	685a      	ldr	r2, [r3, #4]
   21cd4:	606a      	str	r2, [r5, #4]
      ta_param->u[n].mem.size = params[n].u.tmem.size;
   21cd6:	689a      	ldr	r2, [r3, #8]
   21cd8:	60aa      	str	r2, [r5, #8]
      break;
   21cda:	e7c0      	b.n	21c5e <tee_ioctl_invoke+0x46>
  ta_param->types = TEE_PARAM_TYPES(pt[0], pt[1], pt[2], pt[3]);
   21cdc:	f89d 2005 	ldrb.w	r2, [sp, #5]
   21ce0:	f89d 3006 	ldrb.w	r3, [sp, #6]
   21ce4:	021b      	lsls	r3, r3, #8
   21ce6:	ea43 1302 	orr.w	r3, r3, r2, lsl #4
   21cea:	f89d 2004 	ldrb.w	r2, [sp, #4]
   21cee:	4313      	orrs	r3, r2
   21cf0:	f89d 2007 	ldrb.w	r2, [sp, #7]
   21cf4:	ea43 3302 	orr.w	r3, r3, r2, lsl #12
   21cf8:	9306      	str	r3, [sp, #24]
  if (res != TEE_SUCCESS)
    goto out;

  res = tee_ta_invoke_command(&err, sess, arg->func, &param);
   21cfa:	ab06      	add	r3, sp, #24
   21cfc:	6822      	ldr	r2, [r4, #0]
   21cfe:	4639      	mov	r1, r7
   21d00:	a813      	add	r0, sp, #76	@ 0x4c
   21d02:	f000 fb79 	bl	223f8 <tee_ta_invoke_command>

  copy_out_param(&param, arg->num_params, arg->params, saved_attr);
   21d06:	6965      	ldr	r5, [r4, #20]
  for (n = 0; n < num_params; n++) {
   21d08:	b14d      	cbz	r5, 21d1e <tee_ioctl_invoke+0x106>
    switch (TEE_PARAM_TYPE_GET(ta_param->types, n)) {
   21d0a:	9e06      	ldr	r6, [sp, #24]
   21d0c:	f10d 0c18 	add.w	ip, sp, #24
   21d10:	f104 0118 	add.w	r1, r4, #24
   21d14:	f10d 0e08 	add.w	lr, sp, #8
  for (n = 0; n < num_params; n++) {
   21d18:	2200      	movs	r2, #0
   21d1a:	e014      	b.n	21d46 <tee_ioctl_invoke+0x12e>
  res = copy_in_params(arg->params, arg->num_params, &param, saved_attr);
   21d1c:	481b      	ldr	r0, [pc, #108]	@ (21d8c <tee_ioctl_invoke+0x174>)

out:
  arg->ret = res;
   21d1e:	60e0      	str	r0, [r4, #12]
  //arg->ret_origin = err_orig;
  return res;
}
   21d20:	b015      	add	sp, #84	@ 0x54
   21d22:	bdf0      	pop	{r4, r5, r6, r7, pc}
    switch (TEE_PARAM_TYPE_GET(ta_param->types, n)) {
   21d24:	f013 0f0e 	tst.w	r3, #14
   21d28:	d005      	beq.n	21d36 <tee_ioctl_invoke+0x11e>
      params[n].u.value.a = ta_param->u[n].val.a;
   21d2a:	f8dc 3004 	ldr.w	r3, [ip, #4]
   21d2e:	604b      	str	r3, [r1, #4]
      params[n].u.value.b = ta_param->u[n].val.b;
   21d30:	f8dc 3008 	ldr.w	r3, [ip, #8]
   21d34:	608b      	str	r3, [r1, #8]
  for (n = 0; n < num_params; n++) {
   21d36:	3201      	adds	r2, #1
   21d38:	f10c 0c0c 	add.w	ip, ip, #12
   21d3c:	3110      	adds	r1, #16
   21d3e:	f10e 0e04 	add.w	lr, lr, #4
   21d42:	4295      	cmp	r5, r2
   21d44:	d0eb      	beq.n	21d1e <tee_ioctl_invoke+0x106>
    switch (TEE_PARAM_TYPE_GET(ta_param->types, n)) {
   21d46:	0093      	lsls	r3, r2, #2
   21d48:	fa26 f303 	lsr.w	r3, r6, r3
   21d4c:	f013 0f0c 	tst.w	r3, #12
   21d50:	d0e8      	beq.n	21d24 <tee_ioctl_invoke+0x10c>
   21d52:	f003 030f 	and.w	r3, r3, #15
   21d56:	3b06      	subs	r3, #6
   21d58:	2b01      	cmp	r3, #1
   21d5a:	d8ec      	bhi.n	21d36 <tee_ioctl_invoke+0x11e>
      switch (saved_attr[n] & OPTEE_MSG_ATTR_TYPE_MASK) {
   21d5c:	f8de 3000 	ldr.w	r3, [lr]
   21d60:	b2df      	uxtb	r7, r3
   21d62:	f013 0ff8 	tst.w	r3, #248	@ 0xf8
   21d66:	d006      	beq.n	21d76 <tee_ioctl_invoke+0x15e>
   21d68:	3f0a      	subs	r7, #10
   21d6a:	2f01      	cmp	r7, #1
   21d6c:	d8e3      	bhi.n	21d36 <tee_ioctl_invoke+0x11e>
        params[n].u.tmem.size = ta_param->u[n].mem.size;
   21d6e:	f8dc 3008 	ldr.w	r3, [ip, #8]
   21d72:	608b      	str	r3, [r1, #8]
        break;
   21d74:	e7df      	b.n	21d36 <tee_ioctl_invoke+0x11e>
      switch (saved_attr[n] & OPTEE_MSG_ATTR_TYPE_MASK) {
   21d76:	2f05      	cmp	r7, #5
   21d78:	d9dd      	bls.n	21d36 <tee_ioctl_invoke+0x11e>
        params[n].u.rmem.size = ta_param->u[n].mem.size;
   21d7a:	f8dc 3008 	ldr.w	r3, [ip, #8]
   21d7e:	608b      	str	r3, [r1, #8]
        break;
   21d80:	e7d9      	b.n	21d36 <tee_ioctl_invoke+0x11e>
    return TEE_ERROR_BAD_PARAMETERS;
   21d82:	4802      	ldr	r0, [pc, #8]	@ (21d8c <tee_ioctl_invoke+0x174>)
   21d84:	e7cb      	b.n	21d1e <tee_ioctl_invoke+0x106>
   21d86:	bf00      	nop
   21d88:	20010018 	.word	0x20010018
   21d8c:	ffff0006 	.word	0xffff0006

00021d90 <tee_ioctl_close_session>:

TEEC_Result tee_ioctl_close_session(/*ctx,*/ struct tee_ioctl_buf_data *buf_data)
{
   21d90:	b508      	push	{r3, lr}
  struct tee_ta_session *sess;
  struct tee_ioctl_close_session_arg *arg;

  arg = (struct tee_ioctl_close_session_arg *)buf_data->buf_ptr;

  sess = (struct tee_ta_session *)arg->session;
   21d92:	6803      	ldr	r3, [r0, #0]

  res = tee_ta_close_session(sess, &tee_open_sessions, NULL /* NSAPP_IDENTITY*/);
   21d94:	2200      	movs	r2, #0
   21d96:	4902      	ldr	r1, [pc, #8]	@ (21da0 <tee_ioctl_close_session+0x10>)
   21d98:	6818      	ldr	r0, [r3, #0]
   21d9a:	f000 fa79 	bl	22290 <tee_ta_close_session>

//  arg->ret = res;
//  arg->ret_origin = TEE_ORIGIN_TEE;

  return res;
}
   21d9e:	bd08      	pop	{r3, pc}
   21da0:	20010018 	.word	0x20010018

00021da4 <ioctl>:
{
   21da4:	b508      	push	{r3, lr}
   21da6:	4603      	mov	r3, r0
   21da8:	4608      	mov	r0, r1
  switch (cmd) {
   21daa:	2b03      	cmp	r3, #3
   21dac:	d006      	beq.n	21dbc <ioctl+0x18>
   21dae:	2b05      	cmp	r3, #5
   21db0:	d007      	beq.n	21dc2 <ioctl+0x1e>
   21db2:	2b02      	cmp	r3, #2
   21db4:	d108      	bne.n	21dc8 <ioctl+0x24>
    return tee_ioctl_open_session(/*ctx,*/ buf_data);
   21db6:	f7ff ff0b 	bl	21bd0 <tee_ioctl_open_session>
}
   21dba:	bd08      	pop	{r3, pc}
    return tee_ioctl_invoke(/*ctx,*/ buf_data);
   21dbc:	f7ff ff2c 	bl	21c18 <tee_ioctl_invoke>
   21dc0:	e7fb      	b.n	21dba <ioctl+0x16>
    return tee_ioctl_close_session(/*ctx,*/ buf_data);
   21dc2:	f7ff ffe5 	bl	21d90 <tee_ioctl_close_session>
   21dc6:	e7f8      	b.n	21dba <ioctl+0x16>
  switch (cmd) {
   21dc8:	4800      	ldr	r0, [pc, #0]	@ (21dcc <ioctl+0x28>)
   21dca:	e7f6      	b.n	21dba <ioctl+0x16>
   21dcc:	ffff0008 	.word	0xffff0008

00021dd0 <update_out_param>:
	return TEE_SUCCESS;
}

static void update_out_param(TEE_Param tee_param[TEE_NUM_PARAMS],
			     struct tee_ta_param *param)
{
   21dd0:	b530      	push	{r4, r5, lr}
	size_t n;

	for (n = 0; n < TEE_NUM_PARAMS; n++) {
		switch (TEE_PARAM_TYPE_GET(param->types, n)) {
   21dd2:	468e      	mov	lr, r1
   21dd4:	f85e 4b04 	ldr.w	r4, [lr], #4
   21dd8:	2200      	movs	r2, #0
   21dda:	4694      	mov	ip, r2
		case TEE_PARAM_TYPE_VALUE_OUTPUT:
		case TEE_PARAM_TYPE_VALUE_INOUT:
			param->u[n].val.a = tee_param[n].value.a;
			param->u[n].val.b = tee_param[n].value.b;
   21ddc:	1d05      	adds	r5, r0, #4
   21dde:	3108      	adds	r1, #8
   21de0:	e004      	b.n	21dec <update_out_param+0x1c>
	for (n = 0; n < TEE_NUM_PARAMS; n++) {
   21de2:	f10c 0c04 	add.w	ip, ip, #4
   21de6:	3203      	adds	r2, #3
   21de8:	2a0c      	cmp	r2, #12
   21dea:	d00f      	beq.n	21e0c <update_out_param+0x3c>
		switch (TEE_PARAM_TYPE_GET(param->types, n)) {
   21dec:	fa24 f30c 	lsr.w	r3, r4, ip
   21df0:	f003 030f 	and.w	r3, r3, #15
   21df4:	3b02      	subs	r3, #2
   21df6:	2b01      	cmp	r3, #1
   21df8:	d8f3      	bhi.n	21de2 <update_out_param+0x12>
			param->u[n].val.a = tee_param[n].value.a;
   21dfa:	f850 3022 	ldr.w	r3, [r0, r2, lsl #2]
   21dfe:	f84e 3022 	str.w	r3, [lr, r2, lsl #2]
			param->u[n].val.b = tee_param[n].value.b;
   21e02:	f855 3022 	ldr.w	r3, [r5, r2, lsl #2]
   21e06:	f841 3022 	str.w	r3, [r1, r2, lsl #2]
			break;
   21e0a:	e7ea      	b.n	21de2 <update_out_param+0x12>
//			break;
		default:
			break;
		}
	}
}
   21e0c:	bd30      	pop	{r4, r5, pc}

00021e0e <pseudo_ta_destroy>:
//
	tee_ta_pop_current_session();
}

static void pseudo_ta_destroy(struct tee_ta_ctx *ctx)
{
   21e0e:	b508      	push	{r3, lr}
	TEE_Free(to_pseudo_ta_ctx(ctx));
   21e10:	3804      	subs	r0, #4
   21e12:	f7ff fbbd 	bl	21590 <TEE_Free>
}
   21e16:	bd08      	pop	{r3, pc}

00021e18 <pseudo_ta_enter_close_session>:
{
   21e18:	b538      	push	{r3, r4, r5, lr}
   21e1a:	4604      	mov	r4, r0
  }))

static inline struct pseudo_ta_ctx *to_pseudo_ta_ctx(struct tee_ta_ctx *ctx)
{
//	assert(is_pseudo_ta_ctx(ctx));
	return container_of(ctx, struct pseudo_ta_ctx, ctx);
   21e1c:	6905      	ldr	r5, [r0, #16]
	tee_ta_push_current_session(s);
   21e1e:	f000 faf7 	bl	22410 <tee_ta_push_current_session>
	if (stc->pseudo_ta->close_session_entry_point)
   21e22:	f855 3c04 	ldr.w	r3, [r5, #-4]
   21e26:	6a5b      	ldr	r3, [r3, #36]	@ 0x24
   21e28:	b10b      	cbz	r3, 21e2e <pseudo_ta_enter_close_session+0x16>
		stc->pseudo_ta->close_session_entry_point(s->user_ctx);
   21e2a:	6960      	ldr	r0, [r4, #20]
   21e2c:	4798      	blx	r3
	tee_ta_pop_current_session();
   21e2e:	f000 faf5 	bl	2241c <tee_ta_pop_current_session>
}
   21e32:	bd38      	pop	{r3, r4, r5, pc}

00021e34 <copy_in_param>:
{
   21e34:	b510      	push	{r4, lr}
	for (n = 0; n < TEE_NUM_PARAMS; n++) {
   21e36:	468c      	mov	ip, r1
{
   21e38:	2000      	movs	r0, #0
			memset(tee_param + n, 0, sizeof(TEE_Param));
   21e3a:	4686      	mov	lr, r0
   21e3c:	e00c      	b.n	21e58 <copy_in_param+0x24>
		switch (TEE_PARAM_TYPE_GET(param->types, n)) {
   21e3e:	b1e4      	cbz	r4, 21e7a <copy_in_param+0x46>
			tee_param[n].value.a = param->u[n].val.a;
   21e40:	f8dc 3004 	ldr.w	r3, [ip, #4]
   21e44:	6013      	str	r3, [r2, #0]
			tee_param[n].value.b = param->u[n].val.b;
   21e46:	f8dc 3008 	ldr.w	r3, [ip, #8]
   21e4a:	6053      	str	r3, [r2, #4]
	for (n = 0; n < TEE_NUM_PARAMS; n++) {
   21e4c:	3004      	adds	r0, #4
   21e4e:	f10c 0c0c 	add.w	ip, ip, #12
   21e52:	320c      	adds	r2, #12
   21e54:	2810      	cmp	r0, #16
   21e56:	d017      	beq.n	21e88 <copy_in_param+0x54>
		switch (TEE_PARAM_TYPE_GET(param->types, n)) {
   21e58:	680b      	ldr	r3, [r1, #0]
   21e5a:	40c3      	lsrs	r3, r0
   21e5c:	f003 040f 	and.w	r4, r3, #15
   21e60:	f013 0f0c 	tst.w	r3, #12
   21e64:	d0eb      	beq.n	21e3e <copy_in_param+0xa>
   21e66:	3c05      	subs	r4, #5
   21e68:	2c02      	cmp	r4, #2
   21e6a:	d806      	bhi.n	21e7a <copy_in_param+0x46>
      tee_param[n].memref.buffer = param->u[n].mem.buffer;
   21e6c:	f8dc 3004 	ldr.w	r3, [ip, #4]
   21e70:	6013      	str	r3, [r2, #0]
			tee_param[n].memref.size = param->u[n].mem.size;
   21e72:	f8dc 3008 	ldr.w	r3, [ip, #8]
   21e76:	6053      	str	r3, [r2, #4]
			break;
   21e78:	e7e8      	b.n	21e4c <copy_in_param+0x18>
			memset(tee_param + n, 0, sizeof(TEE_Param));
   21e7a:	f8c2 e000 	str.w	lr, [r2]
   21e7e:	f8c2 e004 	str.w	lr, [r2, #4]
   21e82:	f8c2 e008 	str.w	lr, [r2, #8]
			break;
   21e86:	e7e1      	b.n	21e4c <copy_in_param+0x18>
}
   21e88:	2000      	movs	r0, #0
   21e8a:	bd10      	pop	{r4, pc}

00021e8c <pseudo_ta_enter_invoke_cmd>:
{
   21e8c:	e92d 43f0 	stmdb	sp!, {r4, r5, r6, r7, r8, r9, lr}
   21e90:	b08f      	sub	sp, #60	@ 0x3c
   21e92:	4604      	mov	r4, r0
   21e94:	4688      	mov	r8, r1
   21e96:	4615      	mov	r5, r2
   21e98:	461e      	mov	r6, r3
	struct pseudo_ta_ctx *stc = to_pseudo_ta_ctx(s->ctx);
   21e9a:	f8d0 9010 	ldr.w	r9, [r0, #16]
	bool did_map[TEE_NUM_PARAMS] = { false };
   21e9e:	2300      	movs	r3, #0
   21ea0:	9301      	str	r3, [sp, #4]
	tee_ta_push_current_session(s);
   21ea2:	f000 fab5 	bl	22410 <tee_ta_push_current_session>
	res = copy_in_param(s, param, tee_param, did_map);
   21ea6:	ab01      	add	r3, sp, #4
   21ea8:	aa02      	add	r2, sp, #8
   21eaa:	4629      	mov	r1, r5
   21eac:	4620      	mov	r0, r4
   21eae:	f7ff ffc1 	bl	21e34 <copy_in_param>
	if (res != TEE_SUCCESS) {
   21eb2:	b9a0      	cbnz	r0, 21ede <pseudo_ta_enter_invoke_cmd+0x52>
	*eo = TEE_ORIGIN_TRUSTED_APP;
   21eb4:	2304      	movs	r3, #4
   21eb6:	6033      	str	r3, [r6, #0]
	res = stc->pseudo_ta->invoke_command_entry_point(s->user_ctx, cmd,
   21eb8:	f859 3c04 	ldr.w	r3, [r9, #-4]
   21ebc:	6a9e      	ldr	r6, [r3, #40]	@ 0x28
   21ebe:	ab02      	add	r3, sp, #8
   21ec0:	682a      	ldr	r2, [r5, #0]
   21ec2:	4641      	mov	r1, r8
   21ec4:	6960      	ldr	r0, [r4, #20]
   21ec6:	47b0      	blx	r6
   21ec8:	4607      	mov	r7, r0
	update_out_param(tee_param, param);
   21eca:	4629      	mov	r1, r5
   21ecc:	a802      	add	r0, sp, #8
   21ece:	f7ff ff7f 	bl	21dd0 <update_out_param>
	tee_ta_pop_current_session();
   21ed2:	f000 faa3 	bl	2241c <tee_ta_pop_current_session>
}
   21ed6:	4638      	mov	r0, r7
   21ed8:	b00f      	add	sp, #60	@ 0x3c
   21eda:	e8bd 83f0 	ldmia.w	sp!, {r4, r5, r6, r7, r8, r9, pc}
   21ede:	4607      	mov	r7, r0
		*eo = TEE_ORIGIN_TEE;
   21ee0:	2303      	movs	r3, #3
   21ee2:	6033      	str	r3, [r6, #0]
		goto out;
   21ee4:	e7f5      	b.n	21ed2 <pseudo_ta_enter_invoke_cmd+0x46>

00021ee6 <pseudo_ta_enter_open_session>:
{
   21ee6:	e92d 41f0 	stmdb	sp!, {r4, r5, r6, r7, r8, lr}
   21eea:	b08e      	sub	sp, #56	@ 0x38
   21eec:	4604      	mov	r4, r0
   21eee:	460d      	mov	r5, r1
   21ef0:	4616      	mov	r6, r2
   21ef2:	f8d0 8010 	ldr.w	r8, [r0, #16]
	bool did_map[TEE_NUM_PARAMS] = { false };
   21ef6:	2300      	movs	r3, #0
   21ef8:	9301      	str	r3, [sp, #4]
	tee_ta_push_current_session(s);
   21efa:	f000 fa89 	bl	22410 <tee_ta_push_current_session>
	*eo = TEE_ORIGIN_TRUSTED_APP;
   21efe:	2304      	movs	r3, #4
   21f00:	6033      	str	r3, [r6, #0]
	if (stc->pseudo_ta->open_session_entry_point) {
   21f02:	f858 3c04 	ldr.w	r3, [r8, #-4]
   21f06:	6a1b      	ldr	r3, [r3, #32]
   21f08:	b1c3      	cbz	r3, 21f3c <pseudo_ta_enter_open_session+0x56>
		res = copy_in_param(s, param, tee_param, did_map);
   21f0a:	ab01      	add	r3, sp, #4
   21f0c:	aa02      	add	r2, sp, #8
   21f0e:	4629      	mov	r1, r5
   21f10:	4620      	mov	r0, r4
   21f12:	f7ff ff8f 	bl	21e34 <copy_in_param>
		if (res != TEE_SUCCESS) {
   21f16:	4607      	mov	r7, r0
   21f18:	b968      	cbnz	r0, 21f36 <pseudo_ta_enter_open_session+0x50>
		res = stc->pseudo_ta->open_session_entry_point(param->types,
   21f1a:	f858 3c04 	ldr.w	r3, [r8, #-4]
   21f1e:	6a1b      	ldr	r3, [r3, #32]
   21f20:	f104 0214 	add.w	r2, r4, #20
   21f24:	a902      	add	r1, sp, #8
   21f26:	6828      	ldr	r0, [r5, #0]
   21f28:	4798      	blx	r3
   21f2a:	4607      	mov	r7, r0
		update_out_param(tee_param, param);
   21f2c:	4629      	mov	r1, r5
   21f2e:	a802      	add	r0, sp, #8
   21f30:	f7ff ff4e 	bl	21dd0 <update_out_param>
   21f34:	e003      	b.n	21f3e <pseudo_ta_enter_open_session+0x58>
			*eo = TEE_ORIGIN_TEE;
   21f36:	2303      	movs	r3, #3
   21f38:	6033      	str	r3, [r6, #0]
			goto out;
   21f3a:	e000      	b.n	21f3e <pseudo_ta_enter_open_session+0x58>
	TEE_Result res = TEE_SUCCESS;
   21f3c:	2700      	movs	r7, #0
	tee_ta_pop_current_session();
   21f3e:	f000 fa6d 	bl	2241c <tee_ta_pop_current_session>
}
   21f42:	4638      	mov	r0, r7
   21f44:	b00e      	add	sp, #56	@ 0x38
   21f46:	e8bd 81f0 	ldmia.w	sp!, {r4, r5, r6, r7, r8, pc}
	...

00021f4c <tee_ta_init_pseudo_ta_session>:
 * Initialises a session based on the UUID or ptr to the ta
 * Returns ptr to the session (ta_session) and a TEE_Result
 *---------------------------------------------------------------------------*/
TEE_Result tee_ta_init_pseudo_ta_session(const TEE_UUID *uuid,
			struct tee_ta_session *s)
{
   21f4c:	e92d 41f0 	stmdb	sp!, {r4, r5, r6, r7, r8, lr}
   21f50:	b084      	sub	sp, #16
   21f52:	4605      	mov	r5, r0
   21f54:	4688      	mov	r8, r1
	struct pseudo_ta_ctx *stc = NULL;
	struct tee_ta_ctx *ctx;
	const struct pseudo_ta_head *ta;

  DMSG("Lookup pseudo TA %pUl", (void *)uuid);
   21f56:	9001      	str	r0, [sp, #4]
   21f58:	4b2e      	ldr	r3, [pc, #184]	@ (22014 <tee_ta_init_pseudo_ta_session+0xc8>)
   21f5a:	9300      	str	r3, [sp, #0]
   21f5c:	2301      	movs	r3, #1
   21f5e:	2203      	movs	r2, #3
   21f60:	f240 1133 	movw	r1, #307	@ 0x133
   21f64:	482c      	ldr	r0, [pc, #176]	@ (22018 <tee_ta_init_pseudo_ta_session+0xcc>)
   21f66:	f7ff fb41 	bl	215ec <trace_printf>

	ta = &__start_ta_head_section;
	while (true) {
		if (ta >= &__stop_ta_head_section)
   21f6a:	4a2c      	ldr	r2, [pc, #176]	@ (2201c <tee_ta_init_pseudo_ta_session+0xd0>)
   21f6c:	4b2c      	ldr	r3, [pc, #176]	@ (22020 <tee_ta_init_pseudo_ta_session+0xd4>)
   21f6e:	429a      	cmp	r2, r3
   21f70:	d24b      	bcs.n	2200a <tee_ta_init_pseudo_ta_session+0xbe>
	ta = &__start_ta_head_section;
   21f72:	4614      	mov	r4, r2
			return TEE_ERROR_ITEM_NOT_FOUND;
//    uuid_print(&ta->uuid);
//    uuid_print(uuid);
		if (memcmp(&ta->uuid, uuid, sizeof(TEE_UUID)) == 0)
   21f74:	2610      	movs	r6, #16
		if (ta >= &__stop_ta_head_section)
   21f76:	461f      	mov	r7, r3
		if (memcmp(&ta->uuid, uuid, sizeof(TEE_UUID)) == 0)
   21f78:	4632      	mov	r2, r6
   21f7a:	4629      	mov	r1, r5
   21f7c:	4620      	mov	r0, r4
   21f7e:	f001 fbe3 	bl	23748 <memcmp>
   21f82:	b130      	cbz	r0, 21f92 <tee_ta_init_pseudo_ta_session+0x46>
			break;
		ta++;
   21f84:	342c      	adds	r4, #44	@ 0x2c
		if (ta >= &__stop_ta_head_section)
   21f86:	42bc      	cmp	r4, r7
   21f88:	d3f6      	bcc.n	21f78 <tee_ta_init_pseudo_ta_session+0x2c>
			return TEE_ERROR_ITEM_NOT_FOUND;
   21f8a:	4826      	ldr	r0, [pc, #152]	@ (22024 <tee_ta_init_pseudo_ta_session+0xd8>)
	TAILQ_INSERT_HEAD(&tee_ctxes, ctx, link);

	DMSG("%s : %pUl", stc->pseudo_ta->name, (void *)&ctx->uuid);

	return TEE_SUCCESS;
}
   21f8c:	b004      	add	sp, #16
   21f8e:	e8bd 81f0 	ldmia.w	sp!, {r4, r5, r6, r7, r8, pc}
	DMSG("Open %s", ta->name);
   21f92:	6923      	ldr	r3, [r4, #16]
   21f94:	9301      	str	r3, [sp, #4]
   21f96:	4b24      	ldr	r3, [pc, #144]	@ (22028 <tee_ta_init_pseudo_ta_session+0xdc>)
   21f98:	9300      	str	r3, [sp, #0]
   21f9a:	2301      	movs	r3, #1
   21f9c:	2203      	movs	r2, #3
   21f9e:	f240 1141 	movw	r1, #321	@ 0x141
   21fa2:	481d      	ldr	r0, [pc, #116]	@ (22018 <tee_ta_init_pseudo_ta_session+0xcc>)
   21fa4:	f7ff fb22 	bl	215ec <trace_printf>
	stc = TEE_Malloc(sizeof(struct pseudo_ta_ctx), TEE_MALLOC_FILL_ZERO);
   21fa8:	2100      	movs	r1, #0
   21faa:	2024      	movs	r0, #36	@ 0x24
   21fac:	f7ff faec 	bl	21588 <TEE_Malloc>
	if (!stc)
   21fb0:	4605      	mov	r5, r0
   21fb2:	2800      	cmp	r0, #0
   21fb4:	d02b      	beq.n	2200e <tee_ta_init_pseudo_ta_session+0xc2>
	ctx = &stc->ctx;
   21fb6:	1d06      	adds	r6, r0, #4
	s->ctx = ctx;
   21fb8:	f8c8 6010 	str.w	r6, [r8, #16]
	ctx->flags = ta->flags;
   21fbc:	6963      	ldr	r3, [r4, #20]
   21fbe:	6183      	str	r3, [r0, #24]
	stc->pseudo_ta = ta;
   21fc0:	6004      	str	r4, [r0, #0]
	ctx->uuid = ta->uuid;
   21fc2:	e894 000f 	ldmia.w	r4, {r0, r1, r2, r3}
   21fc6:	e886 000f 	stmia.w	r6, {r0, r1, r2, r3}
	ctx->ops = &pseudo_ta_ops;
   21fca:	4b18      	ldr	r3, [pc, #96]	@ (2202c <tee_ta_init_pseudo_ta_session+0xe0>)
   21fcc:	616b      	str	r3, [r5, #20]
	TAILQ_INSERT_HEAD(&tee_ctxes, ctx, link);
   21fce:	4b18      	ldr	r3, [pc, #96]	@ (22030 <tee_ta_init_pseudo_ta_session+0xe4>)
   21fd0:	681b      	ldr	r3, [r3, #0]
   21fd2:	61eb      	str	r3, [r5, #28]
   21fd4:	b1a3      	cbz	r3, 22000 <tee_ta_init_pseudo_ta_session+0xb4>
   21fd6:	f105 021c 	add.w	r2, r5, #28
   21fda:	61da      	str	r2, [r3, #28]
   21fdc:	4b14      	ldr	r3, [pc, #80]	@ (22030 <tee_ta_init_pseudo_ta_session+0xe4>)
   21fde:	601e      	str	r6, [r3, #0]
   21fe0:	622b      	str	r3, [r5, #32]
	DMSG("%s : %pUl", stc->pseudo_ta->name, (void *)&ctx->uuid);
   21fe2:	9602      	str	r6, [sp, #8]
   21fe4:	682b      	ldr	r3, [r5, #0]
   21fe6:	691b      	ldr	r3, [r3, #16]
   21fe8:	9301      	str	r3, [sp, #4]
   21fea:	4b12      	ldr	r3, [pc, #72]	@ (22034 <tee_ta_init_pseudo_ta_session+0xe8>)
   21fec:	9300      	str	r3, [sp, #0]
   21fee:	2301      	movs	r3, #1
   21ff0:	2203      	movs	r2, #3
   21ff2:	f240 1151 	movw	r1, #337	@ 0x151
   21ff6:	4808      	ldr	r0, [pc, #32]	@ (22018 <tee_ta_init_pseudo_ta_session+0xcc>)
   21ff8:	f7ff faf8 	bl	215ec <trace_printf>
	return TEE_SUCCESS;
   21ffc:	2000      	movs	r0, #0
   21ffe:	e7c5      	b.n	21f8c <tee_ta_init_pseudo_ta_session+0x40>
	TAILQ_INSERT_HEAD(&tee_ctxes, ctx, link);
   22000:	f105 031c 	add.w	r3, r5, #28
   22004:	4a0a      	ldr	r2, [pc, #40]	@ (22030 <tee_ta_init_pseudo_ta_session+0xe4>)
   22006:	6053      	str	r3, [r2, #4]
   22008:	e7e8      	b.n	21fdc <tee_ta_init_pseudo_ta_session+0x90>
			return TEE_ERROR_ITEM_NOT_FOUND;
   2200a:	4806      	ldr	r0, [pc, #24]	@ (22024 <tee_ta_init_pseudo_ta_session+0xd8>)
   2200c:	e7be      	b.n	21f8c <tee_ta_init_pseudo_ta_session+0x40>
		return TEE_ERROR_OUT_OF_MEMORY;
   2200e:	480a      	ldr	r0, [pc, #40]	@ (22038 <tee_ta_init_pseudo_ta_session+0xec>)
   22010:	e7bc      	b.n	21f8c <tee_ta_init_pseudo_ta_session+0x40>
   22012:	bf00      	nop
   22014:	0002ffb8 	.word	0x0002ffb8
   22018:	00030578 	.word	0x00030578
   2201c:	00035180 	.word	0x00035180
   22020:	000351ac 	.word	0x000351ac
   22024:	ffff0008 	.word	0xffff0008
   22028:	0002ffd0 	.word	0x0002ffd0
   2202c:	00030598 	.word	0x00030598
   22030:	20010020 	.word	0x20010020
   22034:	0002ffd8 	.word	0x0002ffd8
   22038:	ffff000c 	.word	0xffff000c

0002203c <user_ta_enter_invoke_cmd>:
}

static TEE_Result user_ta_enter_invoke_cmd(struct tee_ta_session *s,
			uint32_t cmd, struct tee_ta_param *param,
			TEE_ErrorOrigin *eo)
{
   2203c:	e92d 41f0 	stmdb	sp!, {r4, r5, r6, r7, r8, lr}
   22040:	461f      	mov	r7, r3
  TEE_Result res;
  struct user_ta_ctx *utc = to_user_ta_ctx(s->ctx);
   22042:	6904      	ldr	r4, [r0, #16]

};

static inline bool is_user_ta_ctx(struct tee_ta_ctx *ctx)
{
	return !!(ctx->flags & TA_FLAG_USER_MODE);
   22044:	6963      	ldr	r3, [r4, #20]
}

static inline struct user_ta_ctx *to_user_ta_ctx(struct tee_ta_ctx *ctx)
{
	assert(is_user_ta_ctx(ctx));
   22046:	f013 0f01 	tst.w	r3, #1
   2204a:	d015      	beq.n	22078 <user_ta_enter_invoke_cmd+0x3c>
   2204c:	4605      	mov	r5, r0
   2204e:	460e      	mov	r6, r1
   22050:	4690      	mov	r8, r2
//  struct pseudo_ta_ctx *stc = to_pseudo_ta_ctx(s->ctx);
//  TEE_Param tee_param[TEE_NUM_PARAMS];
//  bool did_map[TEE_NUM_PARAMS] = { false };

  tee_ta_push_current_session(s);
   22052:	f000 f9dd 	bl	22410 <tee_ta_push_current_session>
//  if (res != TEE_SUCCESS) {
////    unmap_mapped_param(param, did_map);
//    *eo = TEE_ORIGIN_TEE;
//    goto out;
//  }
  *eo = TEE_ORIGIN_TRUSTED_APP;
   22056:	2304      	movs	r3, #4
   22058:	603b      	str	r3, [r7, #0]
  res = utc->user_ta->invoke_command_entry_point(s->user_ctx, cmd,
               param->types,
               (TEE_Param *)param->u);
   2205a:	4643      	mov	r3, r8
  res = utc->user_ta->invoke_command_entry_point(s->user_ctx, cmd,
   2205c:	f853 2b04 	ldr.w	r2, [r3], #4
   22060:	f854 1c34 	ldr.w	r1, [r4, #-52]
   22064:	6a8c      	ldr	r4, [r1, #40]	@ 0x28
   22066:	4631      	mov	r1, r6
   22068:	6968      	ldr	r0, [r5, #20]
   2206a:	47a0      	blx	r4
   2206c:	4604      	mov	r4, r0
//  update_out_param(tee_param, param);
//  unmap_mapped_param(param, did_map);
//out:
  tee_ta_pop_current_session();
   2206e:	f000 f9d5 	bl	2241c <tee_ta_pop_current_session>
  return res;

//	return user_ta_enter(eo, s, UTEE_ENTRY_FUNC_INVOKE_COMMAND, cmd, param);
}
   22072:	4620      	mov	r0, r4
   22074:	e8bd 81f0 	ldmia.w	sp!, {r4, r5, r6, r7, r8, pc}
   22078:	4b02      	ldr	r3, [pc, #8]	@ (22084 <user_ta_enter_invoke_cmd+0x48>)
   2207a:	4a03      	ldr	r2, [pc, #12]	@ (22088 <user_ta_enter_invoke_cmd+0x4c>)
   2207c:	213e      	movs	r1, #62	@ 0x3e
   2207e:	4803      	ldr	r0, [pc, #12]	@ (2208c <user_ta_enter_invoke_cmd+0x50>)
   22080:	f001 f8c6 	bl	23210 <__assert_func>
   22084:	0002ffe4 	.word	0x0002ffe4
   22088:	000305b0 	.word	0x000305b0
   2208c:	0002fff8 	.word	0x0002fff8

00022090 <user_ta_ctx_destroy>:
//	}
//}
//KEEP_PAGER(user_ta_dump_state);

static void user_ta_ctx_destroy(struct tee_ta_ctx *ctx)
{
   22090:	b570      	push	{r4, r5, r6, lr}
	return !!(ctx->flags & TA_FLAG_USER_MODE);
   22092:	6943      	ldr	r3, [r0, #20]
	assert(is_user_ta_ctx(ctx));
   22094:	f013 0f01 	tst.w	r3, #1
   22098:	d018      	beq.n	220cc <user_ta_ctx_destroy+0x3c>
	return container_of(ctx, struct user_ta_ctx, ctx);
   2209a:	f1a0 0434 	sub.w	r4, r0, #52	@ 0x34
	/*
	 * Close sessions opened by this TA
	 * Note that tee_ta_close_session() removes the item
	 * from the utc->open_sessions list.
	 */
	while (!TAILQ_EMPTY(&utc->open_sessions)) {
   2209e:	6960      	ldr	r0, [r4, #20]
   220a0:	b150      	cbz	r0, 220b8 <user_ta_ctx_destroy+0x28>
		tee_ta_close_session(TAILQ_FIRST(&utc->open_sessions),
   220a2:	f104 0614 	add.w	r6, r4, #20
   220a6:	f04f 35ff 	mov.w	r5, #4294967295	@ 0xffffffff
   220aa:	462a      	mov	r2, r5
   220ac:	4631      	mov	r1, r6
   220ae:	f000 f8ef 	bl	22290 <tee_ta_close_session>
	while (!TAILQ_EMPTY(&utc->open_sessions)) {
   220b2:	6960      	ldr	r0, [r4, #20]
   220b4:	2800      	cmp	r0, #0
   220b6:	d1f8      	bne.n	220aa <user_ta_ctx_destroy+0x1a>
//	tee_mmu_final(utc);
//	mobj_free(utc->mobj_code);
//	mobj_free(utc->mobj_stack);

	/* Free cryp states created by this TA */
	tee_svc_cryp_free_states(utc);
   220b8:	4620      	mov	r0, r4
   220ba:	f7ff fcef 	bl	21a9c <tee_svc_cryp_free_states>
	/* Close cryp objects opened by this TA */
	tee_obj_close_all(utc);
   220be:	4620      	mov	r0, r4
   220c0:	f7ff fd3f 	bl	21b42 <tee_obj_close_all>
//	/* Free emums created by this TA */
//	tee_svc_storage_close_all_enum(utc);
	TEE_Free(utc);
   220c4:	4620      	mov	r0, r4
   220c6:	f7ff fa63 	bl	21590 <TEE_Free>
}
   220ca:	bd70      	pop	{r4, r5, r6, pc}
	assert(is_user_ta_ctx(ctx));
   220cc:	4b02      	ldr	r3, [pc, #8]	@ (220d8 <user_ta_ctx_destroy+0x48>)
   220ce:	4a03      	ldr	r2, [pc, #12]	@ (220dc <user_ta_ctx_destroy+0x4c>)
   220d0:	213e      	movs	r1, #62	@ 0x3e
   220d2:	4803      	ldr	r0, [pc, #12]	@ (220e0 <user_ta_ctx_destroy+0x50>)
   220d4:	f001 f89c 	bl	23210 <__assert_func>
   220d8:	0002ffe4 	.word	0x0002ffe4
   220dc:	000305b0 	.word	0x000305b0
   220e0:	0002fff8 	.word	0x0002fff8

000220e4 <user_ta_enter_close_session>:
{
   220e4:	b538      	push	{r3, r4, r5, lr}
  struct user_ta_ctx *utc = to_user_ta_ctx(s->ctx);
   220e6:	6905      	ldr	r5, [r0, #16]
	return !!(ctx->flags & TA_FLAG_USER_MODE);
   220e8:	696b      	ldr	r3, [r5, #20]
	assert(is_user_ta_ctx(ctx));
   220ea:	f013 0f01 	tst.w	r3, #1
   220ee:	d00b      	beq.n	22108 <user_ta_enter_close_session+0x24>
   220f0:	4604      	mov	r4, r0
  tee_ta_push_current_session(s);
   220f2:	f000 f98d 	bl	22410 <tee_ta_push_current_session>
  if (utc->user_ta->close_session_entry_point)
   220f6:	f855 3c34 	ldr.w	r3, [r5, #-52]
   220fa:	6a5b      	ldr	r3, [r3, #36]	@ 0x24
   220fc:	b10b      	cbz	r3, 22102 <user_ta_enter_close_session+0x1e>
    utc->user_ta->close_session_entry_point(s->user_ctx);
   220fe:	6960      	ldr	r0, [r4, #20]
   22100:	4798      	blx	r3
  tee_ta_pop_current_session();
   22102:	f000 f98b 	bl	2241c <tee_ta_pop_current_session>
}
   22106:	bd38      	pop	{r3, r4, r5, pc}
   22108:	4b02      	ldr	r3, [pc, #8]	@ (22114 <user_ta_enter_close_session+0x30>)
   2210a:	4a03      	ldr	r2, [pc, #12]	@ (22118 <user_ta_enter_close_session+0x34>)
   2210c:	213e      	movs	r1, #62	@ 0x3e
   2210e:	4803      	ldr	r0, [pc, #12]	@ (2211c <user_ta_enter_close_session+0x38>)
   22110:	f001 f87e 	bl	23210 <__assert_func>
   22114:	0002ffe4 	.word	0x0002ffe4
   22118:	000305b0 	.word	0x000305b0
   2211c:	0002fff8 	.word	0x0002fff8

00022120 <user_ta_enter_open_session>:
{
   22120:	b570      	push	{r4, r5, r6, lr}
  struct user_ta_ctx *utc = to_user_ta_ctx(s->ctx);
   22122:	6906      	ldr	r6, [r0, #16]
	return !!(ctx->flags & TA_FLAG_USER_MODE);
   22124:	6973      	ldr	r3, [r6, #20]
	assert(is_user_ta_ctx(ctx));
   22126:	f013 0f01 	tst.w	r3, #1
   2212a:	d012      	beq.n	22152 <user_ta_enter_open_session+0x32>
   2212c:	4605      	mov	r5, r0
   2212e:	460c      	mov	r4, r1
  tee_ta_push_current_session(s);
   22130:	f000 f96e 	bl	22410 <tee_ta_push_current_session>
  if (utc->user_ta->open_session_entry_point) {
   22134:	f856 3c34 	ldr.w	r3, [r6, #-52]
   22138:	6a1b      	ldr	r3, [r3, #32]
   2213a:	b183      	cbz	r3, 2215e <user_ta_enter_open_session+0x3e>
        (TEE_Param *)param->u,
   2213c:	4621      	mov	r1, r4
    res = utc->user_ta->open_session_entry_point(param->types,
   2213e:	f851 0b04 	ldr.w	r0, [r1], #4
   22142:	f105 0214 	add.w	r2, r5, #20
   22146:	4798      	blx	r3
   22148:	4604      	mov	r4, r0
  tee_ta_pop_current_session();
   2214a:	f000 f967 	bl	2241c <tee_ta_pop_current_session>
}
   2214e:	4620      	mov	r0, r4
   22150:	bd70      	pop	{r4, r5, r6, pc}
   22152:	4b04      	ldr	r3, [pc, #16]	@ (22164 <user_ta_enter_open_session+0x44>)
   22154:	4a04      	ldr	r2, [pc, #16]	@ (22168 <user_ta_enter_open_session+0x48>)
   22156:	213e      	movs	r1, #62	@ 0x3e
   22158:	4804      	ldr	r0, [pc, #16]	@ (2216c <user_ta_enter_open_session+0x4c>)
   2215a:	f001 f859 	bl	23210 <__assert_func>
  TEE_Result res = TEE_ERROR_GENERIC;
   2215e:	4c04      	ldr	r4, [pc, #16]	@ (22170 <user_ta_enter_open_session+0x50>)
   22160:	e7f3      	b.n	2214a <user_ta_enter_open_session+0x2a>
   22162:	bf00      	nop
   22164:	0002ffe4 	.word	0x0002ffe4
   22168:	000305b0 	.word	0x000305b0
   2216c:	0002fff8 	.word	0x0002fff8
   22170:	ffff0000 	.word	0xffff0000

00022174 <tee_ta_init_user_ta_session>:
//
//	return TEE_SUCCESS;
//}
TEE_Result tee_ta_init_user_ta_session(const TEE_UUID *uuid,
			struct tee_ta_session *s)
{
   22174:	e92d 41f0 	stmdb	sp!, {r4, r5, r6, r7, r8, lr}
   22178:	b082      	sub	sp, #8
   2217a:	4605      	mov	r5, r0
   2217c:	4688      	mov	r8, r1

//  res = ta_store->open(uuid, &ta_handle);
//  if (res != TEE_SUCCESS)
//    return res;

  DMSG("Lookup user TA %pUl", (void *)uuid);
   2217e:	9001      	str	r0, [sp, #4]
   22180:	4b33      	ldr	r3, [pc, #204]	@ (22250 <tee_ta_init_user_ta_session+0xdc>)
   22182:	9300      	str	r3, [sp, #0]
   22184:	2301      	movs	r3, #1
   22186:	2203      	movs	r2, #3
   22188:	f240 311a 	movw	r1, #794	@ 0x31a
   2218c:	4831      	ldr	r0, [pc, #196]	@ (22254 <tee_ta_init_user_ta_session+0xe0>)
   2218e:	f7ff fa2d 	bl	215ec <trace_printf>

  ta_head = (struct user_ta_head *)&__start_user_ta_head_section;
  while (true) {
    if (ta_head >= &__stop_user_ta_head_section)
   22192:	4a31      	ldr	r2, [pc, #196]	@ (22258 <tee_ta_init_user_ta_session+0xe4>)
   22194:	4b31      	ldr	r3, [pc, #196]	@ (2225c <tee_ta_init_user_ta_session+0xe8>)
   22196:	429a      	cmp	r2, r3
   22198:	d255      	bcs.n	22246 <tee_ta_init_user_ta_session+0xd2>
  ta_head = (struct user_ta_head *)&__start_user_ta_head_section;
   2219a:	4614      	mov	r4, r2
      return TEE_ERROR_ITEM_NOT_FOUND;

//    uuid_print(&ta_head->uuid);
//    uuid_print(uuid);

    if (memcmp(&ta_head->uuid, uuid, sizeof(TEE_UUID)) == 0)
   2219c:	2610      	movs	r6, #16
    if (ta_head >= &__stop_user_ta_head_section)
   2219e:	461f      	mov	r7, r3
    if (memcmp(&ta_head->uuid, uuid, sizeof(TEE_UUID)) == 0)
   221a0:	4632      	mov	r2, r6
   221a2:	4629      	mov	r1, r5
   221a4:	4620      	mov	r0, r4
   221a6:	f001 facf 	bl	23748 <memcmp>
   221aa:	b130      	cbz	r0, 221ba <tee_ta_init_user_ta_session+0x46>
      break;
    ta_head++;
   221ac:	342c      	adds	r4, #44	@ 0x2c
    if (ta_head >= &__stop_user_ta_head_section)
   221ae:	42bc      	cmp	r4, r7
   221b0:	d3f6      	bcc.n	221a0 <tee_ta_init_user_ta_session+0x2c>
      return TEE_ERROR_ITEM_NOT_FOUND;
   221b2:	482b      	ldr	r0, [pc, #172]	@ (22260 <tee_ta_init_user_ta_session+0xec>)
//			DMSG("res=0x%x", res);
//		return res;
//	}
error_return:
	return res;
}
   221b4:	b002      	add	sp, #8
   221b6:	e8bd 81f0 	ldmia.w	sp!, {r4, r5, r6, r7, r8, pc}
  DMSG("Open %s", ta_head->name);
   221ba:	6923      	ldr	r3, [r4, #16]
   221bc:	9301      	str	r3, [sp, #4]
   221be:	4b29      	ldr	r3, [pc, #164]	@ (22264 <tee_ta_init_user_ta_session+0xf0>)
   221c0:	9300      	str	r3, [sp, #0]
   221c2:	2301      	movs	r3, #1
   221c4:	2203      	movs	r2, #3
   221c6:	f240 312a 	movw	r1, #810	@ 0x32a
   221ca:	4822      	ldr	r0, [pc, #136]	@ (22254 <tee_ta_init_user_ta_session+0xe0>)
   221cc:	f7ff fa0e 	bl	215ec <trace_printf>
  utc = TEE_Malloc(sizeof(struct user_ta_ctx), TEE_MALLOC_FILL_ZERO);
   221d0:	2100      	movs	r1, #0
   221d2:	2054      	movs	r0, #84	@ 0x54
   221d4:	f7ff f9d8 	bl	21588 <TEE_Malloc>
  if (!utc) {
   221d8:	4605      	mov	r5, r0
   221da:	2800      	cmp	r0, #0
   221dc:	d035      	beq.n	2224a <tee_ta_init_user_ta_session+0xd6>
  TAILQ_INIT(&utc->open_sessions);
   221de:	2200      	movs	r2, #0
   221e0:	4603      	mov	r3, r0
   221e2:	f843 2f14 	str.w	r2, [r3, #20]!
   221e6:	6183      	str	r3, [r0, #24]
  TAILQ_INIT(&utc->cryp_states);
   221e8:	4603      	mov	r3, r0
   221ea:	f843 2f1c 	str.w	r2, [r3, #28]!
   221ee:	6203      	str	r3, [r0, #32]
  TAILQ_INIT(&utc->objects);
   221f0:	4603      	mov	r3, r0
   221f2:	f843 2f24 	str.w	r2, [r3, #36]!
   221f6:	6283      	str	r3, [r0, #40]	@ 0x28
  s->ctx = &utc->ctx;
   221f8:	f100 0634 	add.w	r6, r0, #52	@ 0x34
   221fc:	f8c8 6010 	str.w	r6, [r8, #16]
  utc->ctx.flags = ta_head->flags;
   22200:	6963      	ldr	r3, [r4, #20]
   22202:	6483      	str	r3, [r0, #72]	@ 0x48
  utc->ctx.uuid = ta_head->uuid;
   22204:	e894 000f 	ldmia.w	r4, {r0, r1, r2, r3}
   22208:	e886 000f 	stmia.w	r6, {r0, r1, r2, r3}
  utc->user_ta = ta_head;
   2220c:	602c      	str	r4, [r5, #0]
  utc->ctx.ops = &user_ta_ops;
   2220e:	4b16      	ldr	r3, [pc, #88]	@ (22268 <tee_ta_init_user_ta_session+0xf4>)
   22210:	646b      	str	r3, [r5, #68]	@ 0x44
  TAILQ_INSERT_HEAD(&tee_ctxes, &utc->ctx, link);
   22212:	4b16      	ldr	r3, [pc, #88]	@ (2226c <tee_ta_init_user_ta_session+0xf8>)
   22214:	681b      	ldr	r3, [r3, #0]
   22216:	64eb      	str	r3, [r5, #76]	@ 0x4c
   22218:	b183      	cbz	r3, 2223c <tee_ta_init_user_ta_session+0xc8>
   2221a:	f105 024c 	add.w	r2, r5, #76	@ 0x4c
   2221e:	61da      	str	r2, [r3, #28]
   22220:	4b12      	ldr	r3, [pc, #72]	@ (2226c <tee_ta_init_user_ta_session+0xf8>)
   22222:	601e      	str	r6, [r3, #0]
   22224:	652b      	str	r3, [r5, #80]	@ 0x50
  DMSG("Context was successfully inserted!");
   22226:	4b12      	ldr	r3, [pc, #72]	@ (22270 <tee_ta_init_user_ta_session+0xfc>)
   22228:	9300      	str	r3, [sp, #0]
   2222a:	2301      	movs	r3, #1
   2222c:	2203      	movs	r2, #3
   2222e:	f240 3143 	movw	r1, #835	@ 0x343
   22232:	4808      	ldr	r0, [pc, #32]	@ (22254 <tee_ta_init_user_ta_session+0xe0>)
   22234:	f7ff f9da 	bl	215ec <trace_printf>
  return TEE_SUCCESS;
   22238:	2000      	movs	r0, #0
   2223a:	e7bb      	b.n	221b4 <tee_ta_init_user_ta_session+0x40>
  TAILQ_INSERT_HEAD(&tee_ctxes, &utc->ctx, link);
   2223c:	f105 034c 	add.w	r3, r5, #76	@ 0x4c
   22240:	4a0a      	ldr	r2, [pc, #40]	@ (2226c <tee_ta_init_user_ta_session+0xf8>)
   22242:	6053      	str	r3, [r2, #4]
   22244:	e7ec      	b.n	22220 <tee_ta_init_user_ta_session+0xac>
      return TEE_ERROR_ITEM_NOT_FOUND;
   22246:	4806      	ldr	r0, [pc, #24]	@ (22260 <tee_ta_init_user_ta_session+0xec>)
   22248:	e7b4      	b.n	221b4 <tee_ta_init_user_ta_session+0x40>
	return res;
   2224a:	480a      	ldr	r0, [pc, #40]	@ (22274 <tee_ta_init_user_ta_session+0x100>)
   2224c:	e7b2      	b.n	221b4 <tee_ta_init_user_ta_session+0x40>
   2224e:	bf00      	nop
   22250:	00030060 	.word	0x00030060
   22254:	000305c0 	.word	0x000305c0
   22258:	000351ac 	.word	0x000351ac
   2225c:	000351ac 	.word	0x000351ac
   22260:	ffff0008 	.word	0xffff0008
   22264:	0002ffd0 	.word	0x0002ffd0
   22268:	000305dc 	.word	0x000305dc
   2226c:	20010020 	.word	0x20010020
   22270:	00030074 	.word	0x00030074
   22274:	ffff000c 	.word	0xffff000c

00022278 <tee_ta_get_session>:
	return NULL;
}

struct tee_ta_session *tee_ta_get_session(uint32_t id, bool exclusive,
			struct tee_ta_session_head *open_sessions)
{
   22278:	4603      	mov	r3, r0
	TAILQ_FOREACH(s, open_sessions, link) {
   2227a:	6810      	ldr	r0, [r2, #0]
   2227c:	b128      	cbz	r0, 2228a <tee_ta_get_session+0x12>
    if ((uint32_t)s == id) {
   2227e:	4298      	cmp	r0, r3
   22280:	d004      	beq.n	2228c <tee_ta_get_session+0x14>
	TAILQ_FOREACH(s, open_sessions, link) {
   22282:	6800      	ldr	r0, [r0, #0]
   22284:	b108      	cbz	r0, 2228a <tee_ta_get_session+0x12>
    if ((uint32_t)s == id) {
   22286:	4298      	cmp	r0, r3
   22288:	d1fb      	bne.n	22282 <tee_ta_get_session+0xa>
//		break;
//	}
//
//	mutex_unlock(&tee_ta_mutex);
	return s;
}
   2228a:	4770      	bx	lr
   2228c:	4770      	bx	lr
	...

00022290 <tee_ta_close_session>:
  (void) clnt_id;
//	bool keep_alive;

//	DMSG("tee_ta_close_session(0x%" PRIxVA ")",  (vaddr_t)csess);

	if (!csess)
   22290:	2800      	cmp	r0, #0
   22292:	d045      	beq.n	22320 <tee_ta_close_session+0x90>
{
   22294:	b570      	push	{r4, r5, r6, lr}
   22296:	b082      	sub	sp, #8
   22298:	460e      	mov	r6, r1
   2229a:	4603      	mov	r3, r0
	TAILQ_FOREACH(s, open_sessions, link) {
   2229c:	680c      	ldr	r4, [r1, #0]
   2229e:	2c00      	cmp	r4, #0
   222a0:	d040      	beq.n	22324 <tee_ta_close_session+0x94>
    if ((uint32_t)s == id) {
   222a2:	4284      	cmp	r4, r0
   222a4:	d004      	beq.n	222b0 <tee_ta_close_session+0x20>
	TAILQ_FOREACH(s, open_sessions, link) {
   222a6:	6824      	ldr	r4, [r4, #0]
   222a8:	2c00      	cmp	r4, #0
   222aa:	d030      	beq.n	2230e <tee_ta_close_session+0x7e>
    if ((uint32_t)s == id) {
   222ac:	429c      	cmp	r4, r3
   222ae:	d1fa      	bne.n	222a6 <tee_ta_close_session+0x16>
//	if (check_client(sess, clnt_id) != TEE_SUCCESS) {
//		tee_ta_put_session(sess);
//		return TEE_ERROR_BAD_PARAMETERS; /* intentional generic error */
//	}
//
	ctx = sess->ctx;
   222b0:	6925      	ldr	r5, [r4, #16]
	DMSG("Destroy session");
   222b2:	4b1d      	ldr	r3, [pc, #116]	@ (22328 <tee_ta_close_session+0x98>)
   222b4:	9300      	str	r3, [sp, #0]
   222b6:	2301      	movs	r3, #1
   222b8:	2203      	movs	r2, #3
   222ba:	f240 11b3 	movw	r1, #435	@ 0x1b3
   222be:	481b      	ldr	r0, [pc, #108]	@ (2232c <tee_ta_close_session+0x9c>)
   222c0:	f7ff f994 	bl	215ec <trace_printf>
//
//	tee_ta_set_busy(ctx);
//
//	if (!ctx->panicked) {
//		set_invoke_timeout(sess, TEE_TIMEOUT_INFINITE);
		ctx->ops->enter_close_session(sess);
   222c4:	692b      	ldr	r3, [r5, #16]
   222c6:	689b      	ldr	r3, [r3, #8]
   222c8:	4620      	mov	r0, r4
   222ca:	4798      	blx	r3
	TAILQ_REMOVE(open_sessions, s, link);
   222cc:	6823      	ldr	r3, [r4, #0]
   222ce:	b303      	cbz	r3, 22312 <tee_ta_close_session+0x82>
   222d0:	6862      	ldr	r2, [r4, #4]
   222d2:	605a      	str	r2, [r3, #4]
   222d4:	6863      	ldr	r3, [r4, #4]
   222d6:	6822      	ldr	r2, [r4, #0]
   222d8:	601a      	str	r2, [r3, #0]

	tee_ta_unlink_session(sess, open_sessions);
//#if defined(CFG_TA_GPROF_SUPPORT)
//	free(sess->sbuf);
//#endif
	TEE_Free(sess);
   222da:	4620      	mov	r0, r4
   222dc:	f7ff f958 	bl	21590 <TEE_Free>
//
//	ctx->ref_count--;
//	keep_alive = (ctx->flags & TA_FLAG_INSTANCE_KEEP_ALIVE) &&
//			(ctx->flags & TA_FLAG_SINGLE_INSTANCE);
//	if (!ctx->ref_count && !keep_alive) {
		DMSG("Destroy TA ctx");
   222e0:	4b13      	ldr	r3, [pc, #76]	@ (22330 <tee_ta_close_session+0xa0>)
   222e2:	9300      	str	r3, [sp, #0]
   222e4:	2301      	movs	r3, #1
   222e6:	2203      	movs	r2, #3
   222e8:	f240 11cd 	movw	r1, #461	@ 0x1cd
   222ec:	480f      	ldr	r0, [pc, #60]	@ (2232c <tee_ta_close_session+0x9c>)
   222ee:	f7ff f97d 	bl	215ec <trace_printf>
//
		TAILQ_REMOVE(&tee_ctxes, ctx, link);
   222f2:	69ab      	ldr	r3, [r5, #24]
   222f4:	b183      	cbz	r3, 22318 <tee_ta_close_session+0x88>
   222f6:	69ea      	ldr	r2, [r5, #28]
   222f8:	61da      	str	r2, [r3, #28]
   222fa:	69eb      	ldr	r3, [r5, #28]
   222fc:	69aa      	ldr	r2, [r5, #24]
   222fe:	601a      	str	r2, [r3, #0]
//		mutex_unlock(&tee_ta_mutex);
//
//		condvar_destroy(&ctx->busy_cv);
//
//		pgt_flush_ctx(ctx);
		ctx->ops->destroy(ctx);
   22300:	692b      	ldr	r3, [r5, #16]
   22302:	691b      	ldr	r3, [r3, #16]
   22304:	4628      	mov	r0, r5
   22306:	4798      	blx	r3
//	} else
//		mutex_unlock(&tee_ta_mutex);

	return TEE_SUCCESS;
   22308:	2000      	movs	r0, #0
}
   2230a:	b002      	add	sp, #8
   2230c:	bd70      	pop	{r4, r5, r6, pc}
		return TEE_ERROR_ITEM_NOT_FOUND;
   2230e:	4809      	ldr	r0, [pc, #36]	@ (22334 <tee_ta_close_session+0xa4>)
   22310:	e7fb      	b.n	2230a <tee_ta_close_session+0x7a>
	TAILQ_REMOVE(open_sessions, s, link);
   22312:	6863      	ldr	r3, [r4, #4]
   22314:	6073      	str	r3, [r6, #4]
   22316:	e7dd      	b.n	222d4 <tee_ta_close_session+0x44>
		TAILQ_REMOVE(&tee_ctxes, ctx, link);
   22318:	69ea      	ldr	r2, [r5, #28]
   2231a:	4b07      	ldr	r3, [pc, #28]	@ (22338 <tee_ta_close_session+0xa8>)
   2231c:	605a      	str	r2, [r3, #4]
   2231e:	e7ec      	b.n	222fa <tee_ta_close_session+0x6a>
		return TEE_ERROR_ITEM_NOT_FOUND;
   22320:	4804      	ldr	r0, [pc, #16]	@ (22334 <tee_ta_close_session+0xa4>)
}
   22322:	4770      	bx	lr
		return TEE_ERROR_ITEM_NOT_FOUND;
   22324:	4803      	ldr	r0, [pc, #12]	@ (22334 <tee_ta_close_session+0xa4>)
   22326:	e7f0      	b.n	2230a <tee_ta_close_session+0x7a>
   22328:	00030098 	.word	0x00030098
   2232c:	00030608 	.word	0x00030608
   22330:	000300a8 	.word	0x000300a8
   22334:	ffff0008 	.word	0xffff0008
   22338:	20010020 	.word	0x20010020

0002233c <tee_ta_open_session>:
			       struct tee_ta_session_head *open_sessions,
			       const TEE_UUID *uuid,
//			       const TEE_Identity *clnt_id,
//			       uint32_t cancel_req_to,
			       struct tee_ta_param *param)
{
   2233c:	e92d 43f0 	stmdb	sp!, {r4, r5, r6, r7, r8, r9, lr}
   22340:	b083      	sub	sp, #12
   22342:	4607      	mov	r7, r0
   22344:	4689      	mov	r9, r1
   22346:	4616      	mov	r6, r2
   22348:	4698      	mov	r8, r3
  struct tee_ta_session *s = TEE_Malloc(sizeof(struct tee_ta_session), TEE_MALLOC_FILL_ZERO);
   2234a:	2100      	movs	r1, #0
   2234c:	2018      	movs	r0, #24
   2234e:	f7ff f91b 	bl	21588 <TEE_Malloc>
  *err = TEE_ORIGIN_TEE;
   22352:	2303      	movs	r3, #3
   22354:	603b      	str	r3, [r7, #0]
  if (!s)
   22356:	b360      	cbz	r0, 223b2 <tee_ta_open_session+0x76>
   22358:	4604      	mov	r4, r0
  memset(s,0,sizeof(struct tee_ta_session));
   2235a:	2200      	movs	r2, #0
   2235c:	6002      	str	r2, [r0, #0]
   2235e:	6042      	str	r2, [r0, #4]
   22360:	6082      	str	r2, [r0, #8]
   22362:	60c2      	str	r2, [r0, #12]
   22364:	6102      	str	r2, [r0, #16]
   22366:	6142      	str	r2, [r0, #20]
	TAILQ_INSERT_HEAD(open_sessions, s, link);
   22368:	6833      	ldr	r3, [r6, #0]
   2236a:	6003      	str	r3, [r0, #0]
   2236c:	b1b3      	cbz	r3, 2239c <tee_ta_open_session+0x60>
   2236e:	6058      	str	r0, [r3, #4]
   22370:	6034      	str	r4, [r6, #0]
   22372:	6066      	str	r6, [r4, #4]
	res = tee_ta_init_pseudo_ta_session(uuid, s);
   22374:	4621      	mov	r1, r4
   22376:	4640      	mov	r0, r8
   22378:	f7ff fde8 	bl	21f4c <tee_ta_init_pseudo_ta_session>
   2237c:	4605      	mov	r5, r0
	if (res == TEE_SUCCESS || res != TEE_ERROR_ITEM_NOT_FOUND)
   2237e:	4b1a      	ldr	r3, [pc, #104]	@ (223e8 <tee_ta_open_session+0xac>)
   22380:	4298      	cmp	r0, r3
   22382:	d00d      	beq.n	223a0 <tee_ta_open_session+0x64>
	if (res == TEE_SUCCESS) {
   22384:	b30d      	cbz	r5, 223ca <tee_ta_open_session+0x8e>
		TAILQ_REMOVE(open_sessions, s, link);
   22386:	6823      	ldr	r3, [r4, #0]
   22388:	b183      	cbz	r3, 223ac <tee_ta_open_session+0x70>
   2238a:	6862      	ldr	r2, [r4, #4]
   2238c:	605a      	str	r2, [r3, #4]
   2238e:	6863      	ldr	r3, [r4, #4]
   22390:	6822      	ldr	r2, [r4, #0]
   22392:	601a      	str	r2, [r3, #0]
		TEE_Free(s);
   22394:	4620      	mov	r0, r4
   22396:	f7ff f8fb 	bl	21590 <TEE_Free>
   2239a:	e00b      	b.n	223b4 <tee_ta_open_session+0x78>
	TAILQ_INSERT_HEAD(open_sessions, s, link);
   2239c:	6070      	str	r0, [r6, #4]
   2239e:	e7e7      	b.n	22370 <tee_ta_open_session+0x34>
	res = tee_ta_init_user_ta_session(uuid, s);
   223a0:	4621      	mov	r1, r4
   223a2:	4640      	mov	r0, r8
   223a4:	f7ff fee6 	bl	22174 <tee_ta_init_user_ta_session>
   223a8:	4605      	mov	r5, r0
   223aa:	e7eb      	b.n	22384 <tee_ta_open_session+0x48>
		TAILQ_REMOVE(open_sessions, s, link);
   223ac:	6863      	ldr	r3, [r4, #4]
   223ae:	6073      	str	r3, [r6, #4]
   223b0:	e7ed      	b.n	2238e <tee_ta_open_session+0x52>
    return TEE_ERROR_OUT_OF_MEMORY;
   223b2:	4d0e      	ldr	r5, [pc, #56]	@ (223ec <tee_ta_open_session+0xb0>)
//	bool panicked;
//	bool was_busy = false;
//
	res = tee_ta_init_session(err, open_sessions, uuid, &s);
	if (res != TEE_SUCCESS) {
		DMSG("init session failed 0x%x", res);
   223b4:	9501      	str	r5, [sp, #4]
   223b6:	4b0e      	ldr	r3, [pc, #56]	@ (223f0 <tee_ta_open_session+0xb4>)
   223b8:	9300      	str	r3, [sp, #0]
   223ba:	2301      	movs	r3, #1
   223bc:	2203      	movs	r2, #3
   223be:	f240 2146 	movw	r1, #582	@ 0x246
   223c2:	480c      	ldr	r0, [pc, #48]	@ (223f4 <tee_ta_open_session+0xb8>)
   223c4:	f7ff f912 	bl	215ec <trace_printf>
		return res;
   223c8:	e009      	b.n	223de <tee_ta_open_session+0xa2>
	}
//
//	if (!check_params(s, param))
//		return TEE_ERROR_BAD_PARAMETERS;
//
	ctx = s->ctx;
   223ca:	6923      	ldr	r3, [r4, #16]
//		tee_ta_close_session(s, open_sessions, KERN_IDENTITY);
//		*err = TEE_ORIGIN_TEE;
//		return TEE_ERROR_TARGET_DEAD;
//	}
//
	*sess = s;
   223cc:	f8c9 4000 	str.w	r4, [r9]
//	/* Save identity of the owner of the session */
//	s->clnt_id = *clnt_id;
//
//	if (tee_ta_try_set_busy(ctx)) {
//		set_invoke_timeout(s, cancel_req_to);
		res = ctx->ops->enter_open_session(s, param, err);
   223d0:	691b      	ldr	r3, [r3, #16]
   223d2:	681b      	ldr	r3, [r3, #0]
   223d4:	463a      	mov	r2, r7
   223d6:	990a      	ldr	r1, [sp, #40]	@ 0x28
   223d8:	4620      	mov	r0, r4
   223da:	4798      	blx	r3
   223dc:	4605      	mov	r5, r0
//
//	if (res != TEE_SUCCESS)
//		EMSG("Failed. Return error 0x%x", res);
//
	return res;
}
   223de:	4628      	mov	r0, r5
   223e0:	b003      	add	sp, #12
   223e2:	e8bd 83f0 	ldmia.w	sp!, {r4, r5, r6, r7, r8, r9, pc}
   223e6:	bf00      	nop
   223e8:	ffff0008 	.word	0xffff0008
   223ec:	ffff000c 	.word	0xffff000c
   223f0:	000300b8 	.word	0x000300b8
   223f4:	000305f4 	.word	0x000305f4

000223f8 <tee_ta_invoke_command>:
				 struct tee_ta_session *sess,
//				 const TEE_Identity *clnt_id,
//				 uint32_t cancel_req_to,
				 uint32_t cmd,
				 struct tee_ta_param *param)
{
   223f8:	b510      	push	{r4, lr}
   223fa:	4684      	mov	ip, r0
   223fc:	4608      	mov	r0, r1
   223fe:	4611      	mov	r1, r2
   22400:	461a      	mov	r2, r3
//	}
//
//	tee_ta_set_busy(sess->ctx);
//
//	set_invoke_timeout(sess, cancel_req_to);
  res = sess->ctx->ops->enter_invoke_cmd(sess, cmd, param, err);
   22402:	6903      	ldr	r3, [r0, #16]
   22404:	691b      	ldr	r3, [r3, #16]
   22406:	685c      	ldr	r4, [r3, #4]
   22408:	4663      	mov	r3, ip
   2240a:	47a0      	blx	r4
//	/* Short buffer is not an effective error case */
//	if (res != TEE_SUCCESS && res != TEE_ERROR_SHORT_BUFFER)
//		DMSG("Error: %x of %d\n", res, *err);

	return res;
}
   2240c:	bd10      	pop	{r4, pc}
	...

00022410 <tee_ta_push_current_session>:
//	struct thread_specific_data *tsd = thread_get_tsd();
//
//	TAILQ_INSERT_HEAD(&tsd->sess_stack, sess, link_tsd);
//	update_current_ctx(tsd);

  current_session = sess;
   22410:	4b01      	ldr	r3, [pc, #4]	@ (22418 <tee_ta_push_current_session+0x8>)
   22412:	6018      	str	r0, [r3, #0]

}
   22414:	4770      	bx	lr
   22416:	bf00      	nop
   22418:	20010874 	.word	0x20010874

0002241c <tee_ta_pop_current_session>:
//		TAILQ_REMOVE(&tsd->sess_stack, s, link_tsd);
//		update_current_ctx(tsd);
//	}
  return current_session;
//	return s;
}
   2241c:	4b01      	ldr	r3, [pc, #4]	@ (22424 <tee_ta_pop_current_session+0x8>)
   2241e:	6818      	ldr	r0, [r3, #0]
   22420:	4770      	bx	lr
   22422:	bf00      	nop
   22424:	20010874 	.word	0x20010874

00022428 <crypto_bignum_num_bytes>:
#define ciL		(sizeof(mbedtls_mpi_uint))	/* chars in limb  */
#define biL		(ciL << 3)			/* bits  in limb  */
#define BITS_TO_LIMBS(i) ((i) / biL + ((i) % biL != 0))

size_t crypto_bignum_num_bytes(struct bignum *a)
{
   22428:	b508      	push	{r3, lr}
	assert(a != NULL);
   2242a:	b110      	cbz	r0, 22432 <crypto_bignum_num_bytes+0xa>
	return mbedtls_mpi_size((const mbedtls_mpi *)a);
   2242c:	f000 f940 	bl	226b0 <mbedtls_mpi_size>
}
   22430:	bd08      	pop	{r3, pc}
	assert(a != NULL);
   22432:	4b03      	ldr	r3, [pc, #12]	@ (22440 <crypto_bignum_num_bytes+0x18>)
   22434:	4a03      	ldr	r2, [pc, #12]	@ (22444 <crypto_bignum_num_bytes+0x1c>)
   22436:	2114      	movs	r1, #20
   22438:	4803      	ldr	r0, [pc, #12]	@ (22448 <crypto_bignum_num_bytes+0x20>)
   2243a:	f000 fee9 	bl	23210 <__assert_func>
   2243e:	bf00      	nop
   22440:	000300d4 	.word	0x000300d4
   22444:	0003064c 	.word	0x0003064c
   22448:	000300e0 	.word	0x000300e0

0002244c <crypto_bignum_bn2bin>:
				  (const mbedtls_mpi *)b);
	return CMP_TRILEAN(ret, 0);
}

void crypto_bignum_bn2bin(const struct bignum *from, uint8_t *to)
{
   2244c:	b538      	push	{r3, r4, r5, lr}
	size_t len = 0;

	assert(from != NULL);
   2244e:	b158      	cbz	r0, 22468 <crypto_bignum_bn2bin+0x1c>
   22450:	460c      	mov	r4, r1
   22452:	4605      	mov	r5, r0
	assert(to != NULL);
   22454:	b171      	cbz	r1, 22474 <crypto_bignum_bn2bin+0x28>
	len = crypto_bignum_num_bytes((struct bignum *)from);
   22456:	f7ff ffe7 	bl	22428 <crypto_bignum_num_bytes>
   2245a:	4602      	mov	r2, r0
	if (mbedtls_mpi_write_binary((mbedtls_mpi *)from, to, len))
   2245c:	4621      	mov	r1, r4
   2245e:	4628      	mov	r0, r5
   22460:	f000 f978 	bl	22754 <mbedtls_mpi_write_binary>
   22464:	b160      	cbz	r0, 22480 <crypto_bignum_bn2bin+0x34>
		while(1);
   22466:	e7fe      	b.n	22466 <crypto_bignum_bn2bin+0x1a>
	assert(from != NULL);
   22468:	4b06      	ldr	r3, [pc, #24]	@ (22484 <crypto_bignum_bn2bin+0x38>)
   2246a:	4a07      	ldr	r2, [pc, #28]	@ (22488 <crypto_bignum_bn2bin+0x3c>)
   2246c:	212d      	movs	r1, #45	@ 0x2d
   2246e:	4807      	ldr	r0, [pc, #28]	@ (2248c <crypto_bignum_bn2bin+0x40>)
   22470:	f000 fece 	bl	23210 <__assert_func>
	assert(to != NULL);
   22474:	4b06      	ldr	r3, [pc, #24]	@ (22490 <crypto_bignum_bn2bin+0x44>)
   22476:	4a04      	ldr	r2, [pc, #16]	@ (22488 <crypto_bignum_bn2bin+0x3c>)
   22478:	212e      	movs	r1, #46	@ 0x2e
   2247a:	4804      	ldr	r0, [pc, #16]	@ (2248c <crypto_bignum_bn2bin+0x40>)
   2247c:	f000 fec8 	bl	23210 <__assert_func>
		//PANIC HERE - panic();
}
   22480:	bd38      	pop	{r3, r4, r5, pc}
   22482:	bf00      	nop
   22484:	00030114 	.word	0x00030114
   22488:	00030634 	.word	0x00030634
   2248c:	000300e0 	.word	0x000300e0
   22490:	00030124 	.word	0x00030124

00022494 <crypto_bignum_bin2bn>:

TEE_Result crypto_bignum_bin2bn(const uint8_t *from, size_t fromsize,
			 struct bignum *to)
{
   22494:	b508      	push	{r3, lr}
   22496:	4613      	mov	r3, r2
	//assert(from != NULL);
	//assert(to != NULL);
	if (mbedtls_mpi_read_binary((mbedtls_mpi *)to, from, fromsize))
   22498:	460a      	mov	r2, r1
   2249a:	4601      	mov	r1, r0
   2249c:	4618      	mov	r0, r3
   2249e:	f000 f90d 	bl	226bc <mbedtls_mpi_read_binary>
		return TEE_ERROR_BAD_PARAMETERS;
	return TEE_SUCCESS;
   224a2:	2800      	cmp	r0, #0
}
   224a4:	4801      	ldr	r0, [pc, #4]	@ (224ac <crypto_bignum_bin2bn+0x18>)
   224a6:	bf08      	it	eq
   224a8:	2000      	moveq	r0, #0
   224aa:	bd08      	pop	{r3, pc}
   224ac:	ffff0006 	.word	0xffff0006

000224b0 <crypto_bignum_copy>:

void crypto_bignum_copy(struct bignum *to, const struct bignum *from)
{
   224b0:	b508      	push	{r3, lr}
	assert(from != NULL);
   224b2:	b121      	cbz	r1, 224be <crypto_bignum_copy+0xe>
	assert(to != NULL);
   224b4:	b148      	cbz	r0, 224ca <crypto_bignum_copy+0x1a>
	if (mbedtls_mpi_copy((mbedtls_mpi *)to, (const mbedtls_mpi *)from))
   224b6:	f000 f89d 	bl	225f4 <mbedtls_mpi_copy>
   224ba:	b160      	cbz	r0, 224d6 <crypto_bignum_copy+0x26>
		while(1);
   224bc:	e7fe      	b.n	224bc <crypto_bignum_copy+0xc>
	assert(from != NULL);
   224be:	4b06      	ldr	r3, [pc, #24]	@ (224d8 <crypto_bignum_copy+0x28>)
   224c0:	4a06      	ldr	r2, [pc, #24]	@ (224dc <crypto_bignum_copy+0x2c>)
   224c2:	2141      	movs	r1, #65	@ 0x41
   224c4:	4806      	ldr	r0, [pc, #24]	@ (224e0 <crypto_bignum_copy+0x30>)
   224c6:	f000 fea3 	bl	23210 <__assert_func>
	assert(to != NULL);
   224ca:	4b06      	ldr	r3, [pc, #24]	@ (224e4 <crypto_bignum_copy+0x34>)
   224cc:	4a03      	ldr	r2, [pc, #12]	@ (224dc <crypto_bignum_copy+0x2c>)
   224ce:	2142      	movs	r1, #66	@ 0x42
   224d0:	4803      	ldr	r0, [pc, #12]	@ (224e0 <crypto_bignum_copy+0x30>)
   224d2:	f000 fe9d 	bl	23210 <__assert_func>
		//panic();
}
   224d6:	bd08      	pop	{r3, pc}
   224d8:	00030114 	.word	0x00030114
   224dc:	00030620 	.word	0x00030620
   224e0:	000300e0 	.word	0x000300e0
   224e4:	00030124 	.word	0x00030124

000224e8 <crypto_bignum_free>:

// 	return (struct bignum *)bn;
// }

void crypto_bignum_free(struct bignum *s)
{
   224e8:	b510      	push	{r4, lr}
   224ea:	4604      	mov	r4, r0
	mbedtls_mpi_free((mbedtls_mpi *)s);
   224ec:	f000 f81a 	bl	22524 <mbedtls_mpi_free>
	free(s);
   224f0:	4620      	mov	r0, r4
   224f2:	f000 fbd9 	bl	22ca8 <free>
}
   224f6:	bd10      	pop	{r4, pc}

000224f8 <crypto_bignum_clear>:

void crypto_bignum_clear(struct bignum *s)
{
   224f8:	b510      	push	{r4, lr}
	mbedtls_mpi *bn = (mbedtls_mpi *)s;

	memset(bn->p, 0, mbedtls_mpi_size((const mbedtls_mpi *)bn));
   224fa:	6884      	ldr	r4, [r0, #8]
   224fc:	f000 f8d8 	bl	226b0 <mbedtls_mpi_size>
   22500:	4602      	mov	r2, r0
   22502:	2100      	movs	r1, #0
   22504:	4620      	mov	r0, r4
   22506:	f001 fa05 	bl	23914 <memset>
}
   2250a:	bd10      	pop	{r4, pc}

0002250c <mbedtls_platform_zeroize>:

void mbedtls_platform_zeroize( void *buf, size_t len )
{
    MBEDTLS_INTERNAL_VALIDATE( len == 0 || buf != NULL );

    if( len > 0 )
   2250c:	b131      	cbz	r1, 2251c <mbedtls_platform_zeroize+0x10>
{
   2250e:	b508      	push	{r3, lr}
   22510:	460a      	mov	r2, r1
        memset_func( buf, 0, len );
   22512:	4b03      	ldr	r3, [pc, #12]	@ (22520 <mbedtls_platform_zeroize+0x14>)
   22514:	681b      	ldr	r3, [r3, #0]
   22516:	2100      	movs	r1, #0
   22518:	4798      	blx	r3
}
   2251a:	bd08      	pop	{r3, pc}
   2251c:	4770      	bx	lr
   2251e:	bf00      	nop
   22520:	00030664 	.word	0x00030664

00022524 <mbedtls_mpi_free>:
/*
 * Unallocate one MPI
 */
void mbedtls_mpi_free( mbedtls_mpi *X )
{
    if( X == NULL )
   22524:	b1c8      	cbz	r0, 2255a <mbedtls_mpi_free+0x36>
{
   22526:	b510      	push	{r4, lr}
   22528:	4604      	mov	r4, r0
        return;

    if( X->p != NULL )
   2252a:	6880      	ldr	r0, [r0, #8]
   2252c:	b158      	cbz	r0, 22546 <mbedtls_mpi_free+0x22>
    mbedtls_platform_zeroize( v, ciL * n );
   2252e:	6861      	ldr	r1, [r4, #4]
   22530:	0089      	lsls	r1, r1, #2
   22532:	f7ff ffeb 	bl	2250c <mbedtls_platform_zeroize>
    {
        mbedtls_mpi_zeroize( X->p, X->n );
        if( X->use_mempool )
   22536:	f9b4 3002 	ldrsh.w	r3, [r4, #2]
   2253a:	b153      	cbz	r3, 22552 <mbedtls_mpi_free+0x2e>
            mempool_free( mbedtls_mpi_mempool, X->p );
   2253c:	68a1      	ldr	r1, [r4, #8]
   2253e:	4b07      	ldr	r3, [pc, #28]	@ (2255c <mbedtls_mpi_free+0x38>)
   22540:	6818      	ldr	r0, [r3, #0]
   22542:	f7ff f8bc 	bl	216be <mempool_free>
        else
            mbedtls_free( X->p );
    }

    X->s = 1;
   22546:	2301      	movs	r3, #1
   22548:	8023      	strh	r3, [r4, #0]
    X->n = 0;
   2254a:	2300      	movs	r3, #0
   2254c:	6063      	str	r3, [r4, #4]
    X->p = NULL;
   2254e:	60a3      	str	r3, [r4, #8]
}
   22550:	bd10      	pop	{r4, pc}
            mbedtls_free( X->p );
   22552:	68a0      	ldr	r0, [r4, #8]
   22554:	f000 fba8 	bl	22ca8 <free>
   22558:	e7f5      	b.n	22546 <mbedtls_mpi_free+0x22>
   2255a:	4770      	bx	lr
   2255c:	20010878 	.word	0x20010878

00022560 <mbedtls_mpi_grow>:

/*
 * Enlarge to the specified number of limbs
 */
int mbedtls_mpi_grow( mbedtls_mpi *X, size_t nblimbs )
{
   22560:	b5f8      	push	{r3, r4, r5, r6, r7, lr}
    mbedtls_mpi_uint *p;
    MPI_VALIDATE_RET( X != NULL );

    if( nblimbs > MBEDTLS_MPI_MAX_LIMBS )
   22562:	f242 7310 	movw	r3, #10000	@ 0x2710
   22566:	4299      	cmp	r1, r3
   22568:	d836      	bhi.n	225d8 <mbedtls_mpi_grow+0x78>
   2256a:	4604      	mov	r4, r0
   2256c:	460d      	mov	r5, r1
        return( MBEDTLS_ERR_MPI_ALLOC_FAILED );

    if( X->n < nblimbs )
   2256e:	6843      	ldr	r3, [r0, #4]
   22570:	428b      	cmp	r3, r1
   22572:	d234      	bcs.n	225de <mbedtls_mpi_grow+0x7e>
    {
        if( X->use_mempool )
   22574:	f9b0 3002 	ldrsh.w	r3, [r0, #2]
   22578:	b163      	cbz	r3, 22594 <mbedtls_mpi_grow+0x34>
        {
            p = mempool_alloc( mbedtls_mpi_mempool, nblimbs * ciL );
   2257a:	008f      	lsls	r7, r1, #2
   2257c:	4639      	mov	r1, r7
   2257e:	4b1c      	ldr	r3, [pc, #112]	@ (225f0 <mbedtls_mpi_grow+0x90>)
   22580:	6818      	ldr	r0, [r3, #0]
   22582:	f7ff f897 	bl	216b4 <mempool_alloc>
            if( p == NULL )
   22586:	4606      	mov	r6, r0
   22588:	b358      	cbz	r0, 225e2 <mbedtls_mpi_grow+0x82>
                return( MBEDTLS_ERR_MPI_ALLOC_FAILED );
            memset( p, 0, nblimbs * ciL );
   2258a:	463a      	mov	r2, r7
   2258c:	2100      	movs	r1, #0
   2258e:	f001 f9c1 	bl	23914 <memset>
   22592:	e005      	b.n	225a0 <mbedtls_mpi_grow+0x40>
        }
        else
        {
            p = (mbedtls_mpi_uint*)mbedtls_calloc( nblimbs, ciL );
   22594:	2104      	movs	r1, #4
   22596:	4628      	mov	r0, r5
   22598:	f001 f8ce 	bl	23738 <calloc>
            if( p == NULL )
   2259c:	4606      	mov	r6, r0
   2259e:	b318      	cbz	r0, 225e8 <mbedtls_mpi_grow+0x88>
                return( MBEDTLS_ERR_MPI_ALLOC_FAILED );
        }

        if( X->p != NULL )
   225a0:	68a1      	ldr	r1, [r4, #8]
   225a2:	b189      	cbz	r1, 225c8 <mbedtls_mpi_grow+0x68>
        {
            memcpy( p, X->p, X->n * ciL );
   225a4:	6862      	ldr	r2, [r4, #4]
   225a6:	0092      	lsls	r2, r2, #2
   225a8:	4630      	mov	r0, r6
   225aa:	f000 f971 	bl	22890 <memcpy>
    mbedtls_platform_zeroize( v, ciL * n );
   225ae:	6861      	ldr	r1, [r4, #4]
   225b0:	0089      	lsls	r1, r1, #2
   225b2:	68a0      	ldr	r0, [r4, #8]
   225b4:	f7ff ffaa 	bl	2250c <mbedtls_platform_zeroize>
            mbedtls_mpi_zeroize( X->p, X->n );
            if( X->use_mempool )
   225b8:	f9b4 3002 	ldrsh.w	r3, [r4, #2]
   225bc:	b143      	cbz	r3, 225d0 <mbedtls_mpi_grow+0x70>
                mempool_free( mbedtls_mpi_mempool, X->p);
   225be:	68a1      	ldr	r1, [r4, #8]
   225c0:	4b0b      	ldr	r3, [pc, #44]	@ (225f0 <mbedtls_mpi_grow+0x90>)
   225c2:	6818      	ldr	r0, [r3, #0]
   225c4:	f7ff f87b 	bl	216be <mempool_free>
            else
                mbedtls_free( X->p );
        }

        X->n = nblimbs;
   225c8:	6065      	str	r5, [r4, #4]
        X->p = p;
   225ca:	60a6      	str	r6, [r4, #8]
    }

    return( 0 );
   225cc:	2000      	movs	r0, #0
   225ce:	e007      	b.n	225e0 <mbedtls_mpi_grow+0x80>
                mbedtls_free( X->p );
   225d0:	68a0      	ldr	r0, [r4, #8]
   225d2:	f000 fb69 	bl	22ca8 <free>
   225d6:	e7f7      	b.n	225c8 <mbedtls_mpi_grow+0x68>
        return( MBEDTLS_ERR_MPI_ALLOC_FAILED );
   225d8:	f06f 000f 	mvn.w	r0, #15
   225dc:	e000      	b.n	225e0 <mbedtls_mpi_grow+0x80>
    return( 0 );
   225de:	2000      	movs	r0, #0
}
   225e0:	bdf8      	pop	{r3, r4, r5, r6, r7, pc}
                return( MBEDTLS_ERR_MPI_ALLOC_FAILED );
   225e2:	f06f 000f 	mvn.w	r0, #15
   225e6:	e7fb      	b.n	225e0 <mbedtls_mpi_grow+0x80>
                return( MBEDTLS_ERR_MPI_ALLOC_FAILED );
   225e8:	f06f 000f 	mvn.w	r0, #15
   225ec:	e7f8      	b.n	225e0 <mbedtls_mpi_grow+0x80>
   225ee:	bf00      	nop
   225f0:	20010878 	.word	0x20010878

000225f4 <mbedtls_mpi_copy>:
    int ret = 0;
    size_t i;
    MPI_VALIDATE_RET( X != NULL );
    MPI_VALIDATE_RET( Y != NULL );

    if( X == Y )
   225f4:	4288      	cmp	r0, r1
   225f6:	d036      	beq.n	22666 <mbedtls_mpi_copy+0x72>
{
   225f8:	b570      	push	{r4, r5, r6, lr}
   225fa:	4605      	mov	r5, r0
   225fc:	460e      	mov	r6, r1
        return( 0 );

    if( Y->n == 0 )
   225fe:	6849      	ldr	r1, [r1, #4]
   22600:	b1b1      	cbz	r1, 22630 <mbedtls_mpi_copy+0x3c>
            memset( X->p, 0, X->n * ciL );
        }
        return( 0 );
    }

    for( i = Y->n - 1; i > 0; i-- )
   22602:	1e4b      	subs	r3, r1, #1
   22604:	d007      	beq.n	22616 <mbedtls_mpi_copy+0x22>
   22606:	68b2      	ldr	r2, [r6, #8]
   22608:	eb02 0281 	add.w	r2, r2, r1, lsl #2
        if( Y->p[i] != 0 )
   2260c:	f852 4d04 	ldr.w	r4, [r2, #-4]!
   22610:	b90c      	cbnz	r4, 22616 <mbedtls_mpi_copy+0x22>
    for( i = Y->n - 1; i > 0; i-- )
   22612:	3b01      	subs	r3, #1
   22614:	d1fa      	bne.n	2260c <mbedtls_mpi_copy+0x18>
            break;
    i++;
   22616:	1c5c      	adds	r4, r3, #1

    X->s = Y->s;
   22618:	f9b6 3000 	ldrsh.w	r3, [r6]
   2261c:	802b      	strh	r3, [r5, #0]

    if( X->n < i )
   2261e:	686a      	ldr	r2, [r5, #4]
   22620:	42a2      	cmp	r2, r4
   22622:	d211      	bcs.n	22648 <mbedtls_mpi_copy+0x54>
    {
        MBEDTLS_MPI_CHK( mbedtls_mpi_grow( X, i ) );
   22624:	4621      	mov	r1, r4
   22626:	4628      	mov	r0, r5
   22628:	f7ff ff9a 	bl	22560 <mbedtls_mpi_grow>
   2262c:	b1a0      	cbz	r0, 22658 <mbedtls_mpi_copy+0x64>
   2262e:	e019      	b.n	22664 <mbedtls_mpi_copy+0x70>
        if( X->n != 0 )
   22630:	6842      	ldr	r2, [r0, #4]
   22632:	b90a      	cbnz	r2, 22638 <mbedtls_mpi_copy+0x44>
        return( 0 );
   22634:	2000      	movs	r0, #0
   22636:	e015      	b.n	22664 <mbedtls_mpi_copy+0x70>
            X->s = 1;
   22638:	2301      	movs	r3, #1
   2263a:	8003      	strh	r3, [r0, #0]
            memset( X->p, 0, X->n * ciL );
   2263c:	0092      	lsls	r2, r2, #2
   2263e:	6880      	ldr	r0, [r0, #8]
   22640:	f001 f968 	bl	23914 <memset>
        return( 0 );
   22644:	2000      	movs	r0, #0
   22646:	e00d      	b.n	22664 <mbedtls_mpi_copy+0x70>
    }
    else
    {
        memset( X->p + i, 0, ( X->n - i ) * ciL );
   22648:	1b12      	subs	r2, r2, r4
   2264a:	68a8      	ldr	r0, [r5, #8]
   2264c:	0092      	lsls	r2, r2, #2
   2264e:	2100      	movs	r1, #0
   22650:	eb00 0084 	add.w	r0, r0, r4, lsl #2
   22654:	f001 f95e 	bl	23914 <memset>
    }

    memcpy( X->p, Y->p, i * ciL );
   22658:	00a2      	lsls	r2, r4, #2
   2265a:	68b1      	ldr	r1, [r6, #8]
   2265c:	68a8      	ldr	r0, [r5, #8]
   2265e:	f000 f917 	bl	22890 <memcpy>
   22662:	2000      	movs	r0, #0

cleanup:

    return( ret );
}
   22664:	bd70      	pop	{r4, r5, r6, pc}
        return( 0 );
   22666:	2000      	movs	r0, #0
}
   22668:	4770      	bx	lr

0002266a <mbedtls_mpi_bitlen>:

/*
 * Return the number of bits
 */
size_t mbedtls_mpi_bitlen( const mbedtls_mpi *X )
{
   2266a:	4684      	mov	ip, r0
    size_t i, j;

    if( X->n == 0 )
   2266c:	6840      	ldr	r0, [r0, #4]
   2266e:	b1e0      	cbz	r0, 226aa <mbedtls_mpi_bitlen+0x40>
        return( 0 );

    for( i = X->n - 1; i > 0; i-- )
   22670:	1e42      	subs	r2, r0, #1
   22672:	d008      	beq.n	22686 <mbedtls_mpi_bitlen+0x1c>
   22674:	f8dc 3008 	ldr.w	r3, [ip, #8]
   22678:	eb03 0380 	add.w	r3, r3, r0, lsl #2
        if( X->p[i] != 0 )
   2267c:	f853 1d04 	ldr.w	r1, [r3, #-4]!
   22680:	b909      	cbnz	r1, 22686 <mbedtls_mpi_bitlen+0x1c>
    for( i = X->n - 1; i > 0; i-- )
   22682:	3a01      	subs	r2, #1
   22684:	d1fa      	bne.n	2267c <mbedtls_mpi_bitlen+0x12>
            break;

    j = biL - mbedtls_clz( X->p[i] );
   22686:	f8dc 3008 	ldr.w	r3, [ip, #8]
   2268a:	f853 1022 	ldr.w	r1, [r3, r2, lsl #2]
        if( x & mask ) break;
   2268e:	2900      	cmp	r1, #0
   22690:	db0c      	blt.n	226ac <mbedtls_mpi_bitlen+0x42>
    for( j = 0; j < biL; j++ )
   22692:	2000      	movs	r0, #0
    mbedtls_mpi_uint mask = (mbedtls_mpi_uint) 1 << (biL - 1);
   22694:	f04f 4300 	mov.w	r3, #2147483648	@ 0x80000000
        mask >>= 1;
   22698:	085b      	lsrs	r3, r3, #1
    for( j = 0; j < biL; j++ )
   2269a:	3001      	adds	r0, #1
   2269c:	2820      	cmp	r0, #32
   2269e:	d001      	beq.n	226a4 <mbedtls_mpi_bitlen+0x3a>
        if( x & mask ) break;
   226a0:	4219      	tst	r1, r3
   226a2:	d0f9      	beq.n	22698 <mbedtls_mpi_bitlen+0x2e>

    return( ( i * biL ) + j );
   226a4:	3201      	adds	r2, #1
   226a6:	ebc0 1042 	rsb	r0, r0, r2, lsl #5
}
   226aa:	4770      	bx	lr
    for( j = 0; j < biL; j++ )
   226ac:	2000      	movs	r0, #0
   226ae:	e7f9      	b.n	226a4 <mbedtls_mpi_bitlen+0x3a>

000226b0 <mbedtls_mpi_size>:

/*
 * Return the total size in bytes
 */
size_t mbedtls_mpi_size( const mbedtls_mpi *X )
{
   226b0:	b508      	push	{r3, lr}
    return( ( mbedtls_mpi_bitlen( X ) + 7 ) >> 3 );
   226b2:	f7ff ffda 	bl	2266a <mbedtls_mpi_bitlen>
   226b6:	3007      	adds	r0, #7
}
   226b8:	08c0      	lsrs	r0, r0, #3
   226ba:	bd08      	pop	{r3, pc}

000226bc <mbedtls_mpi_read_binary>:

/*
 * Import X from unsigned binary data, big endian
 */
int mbedtls_mpi_read_binary( mbedtls_mpi *X, const unsigned char *buf, size_t buflen )
{
   226bc:	e92d 41f0 	stmdb	sp!, {r4, r5, r6, r7, r8, lr}
   226c0:	4607      	mov	r7, r0
   226c2:	4688      	mov	r8, r1
   226c4:	4615      	mov	r5, r2
    int ret = MBEDTLS_ERR_ERROR_CORRUPTION_DETECTED;
    size_t const limbs    = CHARS_TO_LIMBS( buflen );
   226c6:	f012 0403 	ands.w	r4, r2, #3
   226ca:	bf18      	it	ne
   226cc:	2401      	movne	r4, #1
   226ce:	eb04 0492 	add.w	r4, r4, r2, lsr #2
    size_t const overhead = ( limbs * ciL ) - buflen;
   226d2:	00a6      	lsls	r6, r4, #2
    if( limbs == 0 )
   226d4:	b15c      	cbz	r4, 226ee <mbedtls_mpi_read_binary+0x32>
    else if( X->n == limbs )
   226d6:	6843      	ldr	r3, [r0, #4]
   226d8:	429c      	cmp	r4, r3
   226da:	d00b      	beq.n	226f4 <mbedtls_mpi_read_binary+0x38>
        mbedtls_mpi_free( X );
   226dc:	f7ff ff22 	bl	22524 <mbedtls_mpi_free>
        return( mbedtls_mpi_grow( X, limbs ) );
   226e0:	4621      	mov	r1, r4
   226e2:	4638      	mov	r0, r7
   226e4:	f7ff ff3c 	bl	22560 <mbedtls_mpi_grow>

    MPI_VALIDATE_RET( X != NULL );
    MPI_VALIDATE_RET( buflen == 0 || buf != NULL );

    /* Ensure that target MPI has exactly the necessary number of limbs */
    MBEDTLS_MPI_CHK( mbedtls_mpi_resize_clear( X, limbs ) );
   226e8:	b350      	cbz	r0, 22740 <mbedtls_mpi_read_binary+0x84>
     * This function is also used to import keys. However, wiping the buffers
     * upon failure is not necessary because failure only can happen before any
     * input is copied.
     */
    return( ret );
}
   226ea:	e8bd 81f0 	ldmia.w	sp!, {r4, r5, r6, r7, r8, pc}
        mbedtls_mpi_free( X );
   226ee:	f7ff ff19 	bl	22524 <mbedtls_mpi_free>
        return( 0 );
   226f2:	e006      	b.n	22702 <mbedtls_mpi_read_binary+0x46>
        memset( X->p, 0, limbs * ciL );
   226f4:	4632      	mov	r2, r6
   226f6:	2100      	movs	r1, #0
   226f8:	6880      	ldr	r0, [r0, #8]
   226fa:	f001 f90b 	bl	23914 <memset>
        X->s = 1;
   226fe:	2301      	movs	r3, #1
   22700:	803b      	strh	r3, [r7, #0]
    if( buflen != 0 )
   22702:	b90d      	cbnz	r5, 22708 <mbedtls_mpi_read_binary+0x4c>
cleanup:
   22704:	2000      	movs	r0, #0
   22706:	e7f0      	b.n	226ea <mbedtls_mpi_read_binary+0x2e>
    size_t const overhead = ( limbs * ciL ) - buflen;
   22708:	1b73      	subs	r3, r6, r5
        memcpy( Xp + overhead, buf, buflen );
   2270a:	68b8      	ldr	r0, [r7, #8]
   2270c:	462a      	mov	r2, r5
   2270e:	4641      	mov	r1, r8
   22710:	4418      	add	r0, r3
   22712:	f000 f8bd 	bl	22890 <memcpy>
    if( limbs == 0 )
   22716:	b17c      	cbz	r4, 22738 <mbedtls_mpi_read_binary+0x7c>
        mpi_bigendian_to_host( X->p, limbs );
   22718:	68bb      	ldr	r3, [r7, #8]
    for( cur_limb_left = p, cur_limb_right = p + ( limbs - 1 );
   2271a:	1f32      	subs	r2, r6, #4
         cur_limb_left <= cur_limb_right;
   2271c:	189a      	adds	r2, r3, r2
   2271e:	d20d      	bcs.n	2273c <mbedtls_mpi_read_binary+0x80>
        tmp             = mpi_uint_bigendian_to_host( *cur_limb_left  );
   22720:	6819      	ldr	r1, [r3, #0]
            return( __builtin_bswap32(x) );
   22722:	ba09      	rev	r1, r1
   22724:	6810      	ldr	r0, [r2, #0]
   22726:	ba00      	rev	r0, r0
        *cur_limb_left  = mpi_uint_bigendian_to_host( *cur_limb_right );
   22728:	f843 0b04 	str.w	r0, [r3], #4
        *cur_limb_right = tmp;
   2272c:	f842 1904 	str.w	r1, [r2], #-4
         cur_limb_left <= cur_limb_right;
   22730:	4293      	cmp	r3, r2
   22732:	d9f5      	bls.n	22720 <mbedtls_mpi_read_binary+0x64>
   22734:	2000      	movs	r0, #0
   22736:	e7d8      	b.n	226ea <mbedtls_mpi_read_binary+0x2e>
   22738:	2000      	movs	r0, #0
   2273a:	e7d6      	b.n	226ea <mbedtls_mpi_read_binary+0x2e>
   2273c:	2000      	movs	r0, #0
    return( ret );
   2273e:	e7d4      	b.n	226ea <mbedtls_mpi_read_binary+0x2e>
    if( buflen != 0 )
   22740:	2d00      	cmp	r5, #0
   22742:	d0d2      	beq.n	226ea <mbedtls_mpi_read_binary+0x2e>
    size_t const overhead = ( limbs * ciL ) - buflen;
   22744:	1b73      	subs	r3, r6, r5
        memcpy( Xp + overhead, buf, buflen );
   22746:	68b8      	ldr	r0, [r7, #8]
   22748:	462a      	mov	r2, r5
   2274a:	4641      	mov	r1, r8
   2274c:	4418      	add	r0, r3
   2274e:	f000 f89f 	bl	22890 <memcpy>
    if( limbs == 0 )
   22752:	e7e1      	b.n	22718 <mbedtls_mpi_read_binary+0x5c>

00022754 <mbedtls_mpi_write_binary>:
/*
 * Export X into unsigned binary data, big endian
 */
int mbedtls_mpi_write_binary( const mbedtls_mpi *X,
                              unsigned char *buf, size_t buflen )
{
   22754:	b570      	push	{r4, r5, r6, lr}
   22756:	4604      	mov	r4, r0
   22758:	4608      	mov	r0, r1
    size_t i;

    MPI_VALIDATE_RET( X != NULL );
    MPI_VALIDATE_RET( buflen == 0 || buf != NULL );

    stored_bytes = X->n * ciL;
   2275a:	6863      	ldr	r3, [r4, #4]
   2275c:	009e      	lsls	r6, r3, #2

    if( stored_bytes < buflen )
   2275e:	ebb2 0f83 	cmp.w	r2, r3, lsl #2
   22762:	d81f      	bhi.n	227a4 <mbedtls_mpi_write_binary+0x50>
    {
        /* The output buffer is smaller than the allocated size of X.
         * However X may fit if its leading bytes are zero. */
        bytes_to_copy = buflen;
        p = buf;
        for( i = bytes_to_copy; i < stored_bytes; i++ )
   22764:	4296      	cmp	r6, r2
   22766:	d924      	bls.n	227b2 <mbedtls_mpi_write_binary+0x5e>
        {
            if( GET_BYTE( X, i ) != 0 )
   22768:	68a1      	ldr	r1, [r4, #8]
   2276a:	f022 0303 	bic.w	r3, r2, #3
   2276e:	f002 0503 	and.w	r5, r2, #3
   22772:	00ed      	lsls	r5, r5, #3
   22774:	58cb      	ldr	r3, [r1, r3]
   22776:	40eb      	lsrs	r3, r5
   22778:	f013 0fff 	tst.w	r3, #255	@ 0xff
   2277c:	d12d      	bne.n	227da <mbedtls_mpi_write_binary+0x86>
        for( i = bytes_to_copy; i < stored_bytes; i++ )
   2277e:	4613      	mov	r3, r2
   22780:	3301      	adds	r3, #1
   22782:	429e      	cmp	r6, r3
   22784:	d015      	beq.n	227b2 <mbedtls_mpi_write_binary+0x5e>
            if( GET_BYTE( X, i ) != 0 )
   22786:	f023 0503 	bic.w	r5, r3, #3
   2278a:	f003 0c03 	and.w	ip, r3, #3
   2278e:	ea4f 0ccc 	mov.w	ip, ip, lsl #3
   22792:	594d      	ldr	r5, [r1, r5]
   22794:	fa25 fc0c 	lsr.w	ip, r5, ip
   22798:	f01c 0fff 	tst.w	ip, #255	@ 0xff
   2279c:	d0f0      	beq.n	22780 <mbedtls_mpi_write_binary+0x2c>
                return( MBEDTLS_ERR_MPI_BUFFER_TOO_SMALL );
   2279e:	f06f 0007 	mvn.w	r0, #7
   227a2:	e019      	b.n	227d8 <mbedtls_mpi_write_binary+0x84>
        p = buf + buflen - stored_bytes;
   227a4:	1b92      	subs	r2, r2, r6
   227a6:	188d      	adds	r5, r1, r2
        memset( buf, 0, buflen - stored_bytes );
   227a8:	2100      	movs	r1, #0
   227aa:	f001 f8b3 	bl	23914 <memset>
        p = buf + buflen - stored_bytes;
   227ae:	4628      	mov	r0, r5
        bytes_to_copy = stored_bytes;
   227b0:	4632      	mov	r2, r6
        }
    }

    for( i = 0; i < bytes_to_copy; i++ )
   227b2:	b1aa      	cbz	r2, 227e0 <mbedtls_mpi_write_binary+0x8c>
   227b4:	4410      	add	r0, r2
   227b6:	2300      	movs	r3, #0
        p[bytes_to_copy - i - 1] = GET_BYTE( X, i );
   227b8:	f023 0103 	bic.w	r1, r3, #3
   227bc:	68a5      	ldr	r5, [r4, #8]
   227be:	f003 0c03 	and.w	ip, r3, #3
   227c2:	ea4f 0ccc 	mov.w	ip, ip, lsl #3
   227c6:	5869      	ldr	r1, [r5, r1]
   227c8:	fa21 fc0c 	lsr.w	ip, r1, ip
   227cc:	f800 cd01 	strb.w	ip, [r0, #-1]!
    for( i = 0; i < bytes_to_copy; i++ )
   227d0:	3301      	adds	r3, #1
   227d2:	429a      	cmp	r2, r3
   227d4:	d1f0      	bne.n	227b8 <mbedtls_mpi_write_binary+0x64>

    return( 0 );
   227d6:	2000      	movs	r0, #0
}
   227d8:	bd70      	pop	{r4, r5, r6, pc}
                return( MBEDTLS_ERR_MPI_BUFFER_TOO_SMALL );
   227da:	f06f 0007 	mvn.w	r0, #7
   227de:	e7fb      	b.n	227d8 <mbedtls_mpi_write_binary+0x84>
    return( 0 );
   227e0:	2000      	movs	r0, #0
   227e2:	e7f9      	b.n	227d8 <mbedtls_mpi_write_binary+0x84>

000227e4 <_puts_r>:
   227e4:	b530      	push	{r4, r5, lr}
   227e6:	4605      	mov	r5, r0
   227e8:	b089      	sub	sp, #36	@ 0x24
   227ea:	4608      	mov	r0, r1
   227ec:	460c      	mov	r4, r1
   227ee:	f000 f8c5 	bl	2297c <strlen>
   227f2:	4b22      	ldr	r3, [pc, #136]	@ (2287c <_puts_r+0x98>)
   227f4:	2201      	movs	r2, #1
   227f6:	9404      	str	r4, [sp, #16]
   227f8:	9306      	str	r3, [sp, #24]
   227fa:	ab04      	add	r3, sp, #16
   227fc:	1881      	adds	r1, r0, r2
   227fe:	9207      	str	r2, [sp, #28]
   22800:	9301      	str	r3, [sp, #4]
   22802:	2202      	movs	r2, #2
   22804:	6b6b      	ldr	r3, [r5, #52]	@ 0x34
   22806:	68ac      	ldr	r4, [r5, #8]
   22808:	9005      	str	r0, [sp, #20]
   2280a:	e9cd 2102 	strd	r2, r1, [sp, #8]
   2280e:	b36b      	cbz	r3, 2286c <_puts_r+0x88>
   22810:	6e63      	ldr	r3, [r4, #100]	@ 0x64
   22812:	f9b4 200c 	ldrsh.w	r2, [r4, #12]
   22816:	07d8      	lsls	r0, r3, #31
   22818:	d401      	bmi.n	2281e <_puts_r+0x3a>
   2281a:	0591      	lsls	r1, r2, #22
   2281c:	d51f      	bpl.n	2285e <_puts_r+0x7a>
   2281e:	0490      	lsls	r0, r2, #18
   22820:	d405      	bmi.n	2282e <_puts_r+0x4a>
   22822:	f442 5200 	orr.w	r2, r2, #8192	@ 0x2000
   22826:	f423 5300 	bic.w	r3, r3, #8192	@ 0x2000
   2282a:	81a2      	strh	r2, [r4, #12]
   2282c:	6663      	str	r3, [r4, #100]	@ 0x64
   2282e:	0499      	lsls	r1, r3, #18
   22830:	d420      	bmi.n	22874 <_puts_r+0x90>
   22832:	aa01      	add	r2, sp, #4
   22834:	4621      	mov	r1, r4
   22836:	4628      	mov	r0, r5
   22838:	f000 fd72 	bl	23320 <__sfvwrite_r>
   2283c:	6e63      	ldr	r3, [r4, #100]	@ 0x64
   2283e:	b9c8      	cbnz	r0, 22874 <_puts_r+0x90>
   22840:	250a      	movs	r5, #10
   22842:	07da      	lsls	r2, r3, #31
   22844:	d402      	bmi.n	2284c <_puts_r+0x68>
   22846:	89a3      	ldrh	r3, [r4, #12]
   22848:	059b      	lsls	r3, r3, #22
   2284a:	d502      	bpl.n	22852 <_puts_r+0x6e>
   2284c:	4628      	mov	r0, r5
   2284e:	b009      	add	sp, #36	@ 0x24
   22850:	bd30      	pop	{r4, r5, pc}
   22852:	6da0      	ldr	r0, [r4, #88]	@ 0x58
   22854:	f001 f8b6 	bl	239c4 <__retarget_lock_release_recursive>
   22858:	4628      	mov	r0, r5
   2285a:	b009      	add	sp, #36	@ 0x24
   2285c:	bd30      	pop	{r4, r5, pc}
   2285e:	6da0      	ldr	r0, [r4, #88]	@ 0x58
   22860:	f001 f8ae 	bl	239c0 <__retarget_lock_acquire_recursive>
   22864:	f9b4 200c 	ldrsh.w	r2, [r4, #12]
   22868:	6e63      	ldr	r3, [r4, #100]	@ 0x64
   2286a:	e7d8      	b.n	2281e <_puts_r+0x3a>
   2286c:	4628      	mov	r0, r5
   2286e:	f000 f957 	bl	22b20 <__sinit>
   22872:	e7cd      	b.n	22810 <_puts_r+0x2c>
   22874:	f04f 35ff 	mov.w	r5, #4294967295	@ 0xffffffff
   22878:	e7e3      	b.n	22842 <_puts_r+0x5e>
   2287a:	bf00      	nop
   2287c:	0002fef0 	.word	0x0002fef0

00022880 <puts>:
   22880:	4b02      	ldr	r3, [pc, #8]	@ (2288c <puts+0xc>)
   22882:	4601      	mov	r1, r0
   22884:	6818      	ldr	r0, [r3, #0]
   22886:	f7ff bfad 	b.w	227e4 <_puts_r>
   2288a:	bf00      	nop
   2288c:	20010448 	.word	0x20010448

00022890 <memcpy>:
   22890:	4684      	mov	ip, r0
   22892:	ea41 0300 	orr.w	r3, r1, r0
   22896:	f013 0303 	ands.w	r3, r3, #3
   2289a:	d149      	bne.n	22930 <memcpy+0xa0>
   2289c:	3a40      	subs	r2, #64	@ 0x40
   2289e:	d323      	bcc.n	228e8 <memcpy+0x58>
   228a0:	680b      	ldr	r3, [r1, #0]
   228a2:	6003      	str	r3, [r0, #0]
   228a4:	684b      	ldr	r3, [r1, #4]
   228a6:	6043      	str	r3, [r0, #4]
   228a8:	688b      	ldr	r3, [r1, #8]
   228aa:	6083      	str	r3, [r0, #8]
   228ac:	68cb      	ldr	r3, [r1, #12]
   228ae:	60c3      	str	r3, [r0, #12]
   228b0:	690b      	ldr	r3, [r1, #16]
   228b2:	6103      	str	r3, [r0, #16]
   228b4:	694b      	ldr	r3, [r1, #20]
   228b6:	6143      	str	r3, [r0, #20]
   228b8:	698b      	ldr	r3, [r1, #24]
   228ba:	6183      	str	r3, [r0, #24]
   228bc:	69cb      	ldr	r3, [r1, #28]
   228be:	61c3      	str	r3, [r0, #28]
   228c0:	6a0b      	ldr	r3, [r1, #32]
   228c2:	6203      	str	r3, [r0, #32]
   228c4:	6a4b      	ldr	r3, [r1, #36]	@ 0x24
   228c6:	6243      	str	r3, [r0, #36]	@ 0x24
   228c8:	6a8b      	ldr	r3, [r1, #40]	@ 0x28
   228ca:	6283      	str	r3, [r0, #40]	@ 0x28
   228cc:	6acb      	ldr	r3, [r1, #44]	@ 0x2c
   228ce:	62c3      	str	r3, [r0, #44]	@ 0x2c
   228d0:	6b0b      	ldr	r3, [r1, #48]	@ 0x30
   228d2:	6303      	str	r3, [r0, #48]	@ 0x30
   228d4:	6b4b      	ldr	r3, [r1, #52]	@ 0x34
   228d6:	6343      	str	r3, [r0, #52]	@ 0x34
   228d8:	6b8b      	ldr	r3, [r1, #56]	@ 0x38
   228da:	6383      	str	r3, [r0, #56]	@ 0x38
   228dc:	6bcb      	ldr	r3, [r1, #60]	@ 0x3c
   228de:	63c3      	str	r3, [r0, #60]	@ 0x3c
   228e0:	3040      	adds	r0, #64	@ 0x40
   228e2:	3140      	adds	r1, #64	@ 0x40
   228e4:	3a40      	subs	r2, #64	@ 0x40
   228e6:	d2db      	bcs.n	228a0 <memcpy+0x10>
   228e8:	3230      	adds	r2, #48	@ 0x30
   228ea:	d30b      	bcc.n	22904 <memcpy+0x74>
   228ec:	680b      	ldr	r3, [r1, #0]
   228ee:	6003      	str	r3, [r0, #0]
   228f0:	684b      	ldr	r3, [r1, #4]
   228f2:	6043      	str	r3, [r0, #4]
   228f4:	688b      	ldr	r3, [r1, #8]
   228f6:	6083      	str	r3, [r0, #8]
   228f8:	68cb      	ldr	r3, [r1, #12]
   228fa:	60c3      	str	r3, [r0, #12]
   228fc:	3010      	adds	r0, #16
   228fe:	3110      	adds	r1, #16
   22900:	3a10      	subs	r2, #16
   22902:	d2f3      	bcs.n	228ec <memcpy+0x5c>
   22904:	320c      	adds	r2, #12
   22906:	d305      	bcc.n	22914 <memcpy+0x84>
   22908:	f851 3b04 	ldr.w	r3, [r1], #4
   2290c:	f840 3b04 	str.w	r3, [r0], #4
   22910:	3a04      	subs	r2, #4
   22912:	d2f9      	bcs.n	22908 <memcpy+0x78>
   22914:	3204      	adds	r2, #4
   22916:	d008      	beq.n	2292a <memcpy+0x9a>
   22918:	07d2      	lsls	r2, r2, #31
   2291a:	bf1c      	itt	ne
   2291c:	f811 3b01 	ldrbne.w	r3, [r1], #1
   22920:	f800 3b01 	strbne.w	r3, [r0], #1
   22924:	d301      	bcc.n	2292a <memcpy+0x9a>
   22926:	880b      	ldrh	r3, [r1, #0]
   22928:	8003      	strh	r3, [r0, #0]
   2292a:	4660      	mov	r0, ip
   2292c:	4770      	bx	lr
   2292e:	bf00      	nop
   22930:	2a08      	cmp	r2, #8
   22932:	d313      	bcc.n	2295c <memcpy+0xcc>
   22934:	078b      	lsls	r3, r1, #30
   22936:	d0b1      	beq.n	2289c <memcpy+0xc>
   22938:	f010 0303 	ands.w	r3, r0, #3
   2293c:	d0ae      	beq.n	2289c <memcpy+0xc>
   2293e:	f1c3 0304 	rsb	r3, r3, #4
   22942:	1ad2      	subs	r2, r2, r3
   22944:	07db      	lsls	r3, r3, #31
   22946:	bf1c      	itt	ne
   22948:	f811 3b01 	ldrbne.w	r3, [r1], #1
   2294c:	f800 3b01 	strbne.w	r3, [r0], #1
   22950:	d3a4      	bcc.n	2289c <memcpy+0xc>
   22952:	f831 3b02 	ldrh.w	r3, [r1], #2
   22956:	f820 3b02 	strh.w	r3, [r0], #2
   2295a:	e79f      	b.n	2289c <memcpy+0xc>
   2295c:	3a04      	subs	r2, #4
   2295e:	d3d9      	bcc.n	22914 <memcpy+0x84>
   22960:	3a01      	subs	r2, #1
   22962:	f811 3b01 	ldrb.w	r3, [r1], #1
   22966:	f800 3b01 	strb.w	r3, [r0], #1
   2296a:	d2f9      	bcs.n	22960 <memcpy+0xd0>
   2296c:	780b      	ldrb	r3, [r1, #0]
   2296e:	7003      	strb	r3, [r0, #0]
   22970:	784b      	ldrb	r3, [r1, #1]
   22972:	7043      	strb	r3, [r0, #1]
   22974:	788b      	ldrb	r3, [r1, #2]
   22976:	7083      	strb	r3, [r0, #2]
   22978:	4660      	mov	r0, ip
   2297a:	4770      	bx	lr

0002297c <strlen>:
   2297c:	f020 0103 	bic.w	r1, r0, #3
   22980:	f010 0003 	ands.w	r0, r0, #3
   22984:	f1c0 0000 	rsb	r0, r0, #0
   22988:	f851 3b04 	ldr.w	r3, [r1], #4
   2298c:	f100 0c04 	add.w	ip, r0, #4
   22990:	ea4f 0ccc 	mov.w	ip, ip, lsl #3
   22994:	f06f 0200 	mvn.w	r2, #0
   22998:	bf1c      	itt	ne
   2299a:	fa22 f20c 	lsrne.w	r2, r2, ip
   2299e:	4313      	orrne	r3, r2
   229a0:	f04f 0c01 	mov.w	ip, #1
   229a4:	ea4c 2c0c 	orr.w	ip, ip, ip, lsl #8
   229a8:	ea4c 4c0c 	orr.w	ip, ip, ip, lsl #16
   229ac:	eba3 020c 	sub.w	r2, r3, ip
   229b0:	ea22 0203 	bic.w	r2, r2, r3
   229b4:	ea12 12cc 	ands.w	r2, r2, ip, lsl #7
   229b8:	bf04      	itt	eq
   229ba:	f851 3b04 	ldreq.w	r3, [r1], #4
   229be:	3004      	addeq	r0, #4
   229c0:	d0f4      	beq.n	229ac <strlen+0x30>
   229c2:	f1c2 0100 	rsb	r1, r2, #0
   229c6:	ea02 0201 	and.w	r2, r2, r1
   229ca:	fab2 f282 	clz	r2, r2
   229ce:	f1c2 021f 	rsb	r2, r2, #31
   229d2:	eb00 00d2 	add.w	r0, r0, r2, lsr #3
   229d6:	4770      	bx	lr

000229d8 <stdio_exit_handler>:
   229d8:	4a02      	ldr	r2, [pc, #8]	@ (229e4 <stdio_exit_handler+0xc>)
   229da:	4903      	ldr	r1, [pc, #12]	@ (229e8 <stdio_exit_handler+0x10>)
   229dc:	4803      	ldr	r0, [pc, #12]	@ (229ec <stdio_exit_handler+0x14>)
   229de:	f000 be1b 	b.w	23618 <_fwalk_sglue>
   229e2:	bf00      	nop
   229e4:	20010028 	.word	0x20010028
   229e8:	0002412d 	.word	0x0002412d
   229ec:	20010450 	.word	0x20010450

000229f0 <cleanup_stdio>:
   229f0:	4b0c      	ldr	r3, [pc, #48]	@ (22a24 <cleanup_stdio+0x34>)
   229f2:	6841      	ldr	r1, [r0, #4]
   229f4:	4299      	cmp	r1, r3
   229f6:	b510      	push	{r4, lr}
   229f8:	4604      	mov	r4, r0
   229fa:	d001      	beq.n	22a00 <cleanup_stdio+0x10>
   229fc:	f001 fb96 	bl	2412c <_fclose_r>
   22a00:	68a1      	ldr	r1, [r4, #8]
   22a02:	4b09      	ldr	r3, [pc, #36]	@ (22a28 <cleanup_stdio+0x38>)
   22a04:	4299      	cmp	r1, r3
   22a06:	d002      	beq.n	22a0e <cleanup_stdio+0x1e>
   22a08:	4620      	mov	r0, r4
   22a0a:	f001 fb8f 	bl	2412c <_fclose_r>
   22a0e:	68e1      	ldr	r1, [r4, #12]
   22a10:	4b06      	ldr	r3, [pc, #24]	@ (22a2c <cleanup_stdio+0x3c>)
   22a12:	4299      	cmp	r1, r3
   22a14:	d004      	beq.n	22a20 <cleanup_stdio+0x30>
   22a16:	4620      	mov	r0, r4
   22a18:	e8bd 4010 	ldmia.w	sp!, {r4, lr}
   22a1c:	f001 bb86 	b.w	2412c <_fclose_r>
   22a20:	bd10      	pop	{r4, pc}
   22a22:	bf00      	nop
   22a24:	2001087c 	.word	0x2001087c
   22a28:	200108e4 	.word	0x200108e4
   22a2c:	2001094c 	.word	0x2001094c

00022a30 <global_stdio_init.part.0>:
   22a30:	e92d 43f8 	stmdb	sp!, {r3, r4, r5, r6, r7, r8, r9, lr}
   22a34:	4a31      	ldr	r2, [pc, #196]	@ (22afc <global_stdio_init.part.0+0xcc>)
   22a36:	2500      	movs	r5, #0
   22a38:	4c31      	ldr	r4, [pc, #196]	@ (22b00 <global_stdio_init.part.0+0xd0>)
   22a3a:	2304      	movs	r3, #4
   22a3c:	4931      	ldr	r1, [pc, #196]	@ (22b04 <global_stdio_init.part.0+0xd4>)
   22a3e:	f8df 90c8 	ldr.w	r9, [pc, #200]	@ 22b08 <global_stdio_init.part.0+0xd8>
   22a42:	f104 005c 	add.w	r0, r4, #92	@ 0x5c
   22a46:	f8df 80c4 	ldr.w	r8, [pc, #196]	@ 22b0c <global_stdio_init.part.0+0xdc>
   22a4a:	4f31      	ldr	r7, [pc, #196]	@ (22b10 <global_stdio_init.part.0+0xe0>)
   22a4c:	4e31      	ldr	r6, [pc, #196]	@ (22b14 <global_stdio_init.part.0+0xe4>)
   22a4e:	6011      	str	r1, [r2, #0]
   22a50:	4629      	mov	r1, r5
   22a52:	2208      	movs	r2, #8
   22a54:	6025      	str	r5, [r4, #0]
   22a56:	6665      	str	r5, [r4, #100]	@ 0x64
   22a58:	e9c4 3503 	strd	r3, r5, [r4, #12]
   22a5c:	e9c4 5501 	strd	r5, r5, [r4, #4]
   22a60:	e9c4 5505 	strd	r5, r5, [r4, #20]
   22a64:	f000 ff56 	bl	23914 <memset>
   22a68:	f104 0058 	add.w	r0, r4, #88	@ 0x58
   22a6c:	62e6      	str	r6, [r4, #44]	@ 0x2c
   22a6e:	e9c4 4907 	strd	r4, r9, [r4, #28]
   22a72:	e9c4 8709 	strd	r8, r7, [r4, #36]	@ 0x24
   22a76:	f000 ff9f 	bl	239b8 <__retarget_lock_init_recursive>
   22a7a:	4b27      	ldr	r3, [pc, #156]	@ (22b18 <global_stdio_init.part.0+0xe8>)
   22a7c:	4629      	mov	r1, r5
   22a7e:	2208      	movs	r2, #8
   22a80:	f104 00c4 	add.w	r0, r4, #196	@ 0xc4
   22a84:	6763      	str	r3, [r4, #116]	@ 0x74
   22a86:	6725      	str	r5, [r4, #112]	@ 0x70
   22a88:	f8c4 50cc 	str.w	r5, [r4, #204]	@ 0xcc
   22a8c:	f8c4 5080 	str.w	r5, [r4, #128]	@ 0x80
   22a90:	e9c4 551a 	strd	r5, r5, [r4, #104]	@ 0x68
   22a94:	e9c4 551e 	strd	r5, r5, [r4, #120]	@ 0x78
   22a98:	f000 ff3c 	bl	23914 <memset>
   22a9c:	f104 0368 	add.w	r3, r4, #104	@ 0x68
   22aa0:	f104 00c0 	add.w	r0, r4, #192	@ 0xc0
   22aa4:	f8c4 3084 	str.w	r3, [r4, #132]	@ 0x84
   22aa8:	e9c4 9822 	strd	r9, r8, [r4, #136]	@ 0x88
   22aac:	e9c4 7624 	strd	r7, r6, [r4, #144]	@ 0x90
   22ab0:	f000 ff82 	bl	239b8 <__retarget_lock_init_recursive>
   22ab4:	4b19      	ldr	r3, [pc, #100]	@ (22b1c <global_stdio_init.part.0+0xec>)
   22ab6:	4629      	mov	r1, r5
   22ab8:	f504 7096 	add.w	r0, r4, #300	@ 0x12c
   22abc:	2208      	movs	r2, #8
   22abe:	f8c4 30dc 	str.w	r3, [r4, #220]	@ 0xdc
   22ac2:	f8c4 50d8 	str.w	r5, [r4, #216]	@ 0xd8
   22ac6:	f8c4 5134 	str.w	r5, [r4, #308]	@ 0x134
   22aca:	f8c4 50e8 	str.w	r5, [r4, #232]	@ 0xe8
   22ace:	e9c4 5534 	strd	r5, r5, [r4, #208]	@ 0xd0
   22ad2:	e9c4 5538 	strd	r5, r5, [r4, #224]	@ 0xe0
   22ad6:	f000 ff1d 	bl	23914 <memset>
   22ada:	f104 03d0 	add.w	r3, r4, #208	@ 0xd0
   22ade:	f504 7094 	add.w	r0, r4, #296	@ 0x128
   22ae2:	f8c4 90f0 	str.w	r9, [r4, #240]	@ 0xf0
   22ae6:	f8c4 60fc 	str.w	r6, [r4, #252]	@ 0xfc
   22aea:	f8c4 30ec 	str.w	r3, [r4, #236]	@ 0xec
   22aee:	e9c4 873d 	strd	r8, r7, [r4, #244]	@ 0xf4
   22af2:	e8bd 43f8 	ldmia.w	sp!, {r3, r4, r5, r6, r7, r8, r9, lr}
   22af6:	f000 bf5f 	b.w	239b8 <__retarget_lock_init_recursive>
   22afa:	bf00      	nop
   22afc:	200109b4 	.word	0x200109b4
   22b00:	2001087c 	.word	0x2001087c
   22b04:	000229d9 	.word	0x000229d9
   22b08:	00022c05 	.word	0x00022c05
   22b0c:	00022c29 	.word	0x00022c29
   22b10:	00022c69 	.word	0x00022c69
   22b14:	00022c91 	.word	0x00022c91
   22b18:	00010009 	.word	0x00010009
   22b1c:	00020012 	.word	0x00020012

00022b20 <__sinit>:
   22b20:	b510      	push	{r4, lr}
   22b22:	4604      	mov	r4, r0
   22b24:	480a      	ldr	r0, [pc, #40]	@ (22b50 <__sinit+0x30>)
   22b26:	f000 ff4b 	bl	239c0 <__retarget_lock_acquire_recursive>
   22b2a:	6b63      	ldr	r3, [r4, #52]	@ 0x34
   22b2c:	b923      	cbnz	r3, 22b38 <__sinit+0x18>
   22b2e:	4b09      	ldr	r3, [pc, #36]	@ (22b54 <__sinit+0x34>)
   22b30:	4a09      	ldr	r2, [pc, #36]	@ (22b58 <__sinit+0x38>)
   22b32:	681b      	ldr	r3, [r3, #0]
   22b34:	6362      	str	r2, [r4, #52]	@ 0x34
   22b36:	b123      	cbz	r3, 22b42 <__sinit+0x22>
   22b38:	4805      	ldr	r0, [pc, #20]	@ (22b50 <__sinit+0x30>)
   22b3a:	e8bd 4010 	ldmia.w	sp!, {r4, lr}
   22b3e:	f000 bf41 	b.w	239c4 <__retarget_lock_release_recursive>
   22b42:	f7ff ff75 	bl	22a30 <global_stdio_init.part.0>
   22b46:	4802      	ldr	r0, [pc, #8]	@ (22b50 <__sinit+0x30>)
   22b48:	e8bd 4010 	ldmia.w	sp!, {r4, lr}
   22b4c:	f000 bf3a 	b.w	239c4 <__retarget_lock_release_recursive>
   22b50:	200109f0 	.word	0x200109f0
   22b54:	200109b4 	.word	0x200109b4
   22b58:	000229f1 	.word	0x000229f1

00022b5c <__sfp_lock_acquire>:
   22b5c:	4801      	ldr	r0, [pc, #4]	@ (22b64 <__sfp_lock_acquire+0x8>)
   22b5e:	f000 bf2f 	b.w	239c0 <__retarget_lock_acquire_recursive>
   22b62:	bf00      	nop
   22b64:	200109f0 	.word	0x200109f0

00022b68 <__sfp_lock_release>:
   22b68:	4801      	ldr	r0, [pc, #4]	@ (22b70 <__sfp_lock_release+0x8>)
   22b6a:	f000 bf2b 	b.w	239c4 <__retarget_lock_release_recursive>
   22b6e:	bf00      	nop
   22b70:	200109f0 	.word	0x200109f0

00022b74 <snprintf>:
   22b74:	b40c      	push	{r2, r3}
   22b76:	2900      	cmp	r1, #0
   22b78:	4b21      	ldr	r3, [pc, #132]	@ (22c00 <snprintf+0x8c>)
   22b7a:	b510      	push	{r4, lr}
   22b7c:	681c      	ldr	r4, [r3, #0]
   22b7e:	b09c      	sub	sp, #112	@ 0x70
   22b80:	db38      	blt.n	22bf4 <snprintf+0x80>
   22b82:	f04f 0300 	mov.w	r3, #0
   22b86:	f44f 7202 	mov.w	r2, #520	@ 0x208
   22b8a:	9002      	str	r0, [sp, #8]
   22b8c:	931b      	str	r3, [sp, #108]	@ 0x6c
   22b8e:	ab1f      	add	r3, sp, #124	@ 0x7c
   22b90:	9006      	str	r0, [sp, #24]
   22b92:	f8ad 2014 	strh.w	r2, [sp, #20]
   22b96:	d018      	beq.n	22bca <snprintf+0x56>
   22b98:	3901      	subs	r1, #1
   22b9a:	f64f 70ff 	movw	r0, #65535	@ 0xffff
   22b9e:	9a1e      	ldr	r2, [sp, #120]	@ 0x78
   22ba0:	9104      	str	r1, [sp, #16]
   22ba2:	9107      	str	r1, [sp, #28]
   22ba4:	a902      	add	r1, sp, #8
   22ba6:	f8ad 0016 	strh.w	r0, [sp, #22]
   22baa:	4620      	mov	r0, r4
   22bac:	9301      	str	r3, [sp, #4]
   22bae:	f001 fc8f 	bl	244d0 <_svfprintf_r>
   22bb2:	1c42      	adds	r2, r0, #1
   22bb4:	da01      	bge.n	22bba <snprintf+0x46>
   22bb6:	238b      	movs	r3, #139	@ 0x8b
   22bb8:	6023      	str	r3, [r4, #0]
   22bba:	9b02      	ldr	r3, [sp, #8]
   22bbc:	2200      	movs	r2, #0
   22bbe:	701a      	strb	r2, [r3, #0]
   22bc0:	b01c      	add	sp, #112	@ 0x70
   22bc2:	e8bd 4010 	ldmia.w	sp!, {r4, lr}
   22bc6:	b002      	add	sp, #8
   22bc8:	4770      	bx	lr
   22bca:	f64f 70ff 	movw	r0, #65535	@ 0xffff
   22bce:	9104      	str	r1, [sp, #16]
   22bd0:	9107      	str	r1, [sp, #28]
   22bd2:	a902      	add	r1, sp, #8
   22bd4:	f8ad 0016 	strh.w	r0, [sp, #22]
   22bd8:	4620      	mov	r0, r4
   22bda:	9a1e      	ldr	r2, [sp, #120]	@ 0x78
   22bdc:	9301      	str	r3, [sp, #4]
   22bde:	f001 fc77 	bl	244d0 <_svfprintf_r>
   22be2:	1c43      	adds	r3, r0, #1
   22be4:	da01      	bge.n	22bea <snprintf+0x76>
   22be6:	238b      	movs	r3, #139	@ 0x8b
   22be8:	6023      	str	r3, [r4, #0]
   22bea:	b01c      	add	sp, #112	@ 0x70
   22bec:	e8bd 4010 	ldmia.w	sp!, {r4, lr}
   22bf0:	b002      	add	sp, #8
   22bf2:	4770      	bx	lr
   22bf4:	238b      	movs	r3, #139	@ 0x8b
   22bf6:	f04f 30ff 	mov.w	r0, #4294967295	@ 0xffffffff
   22bfa:	6023      	str	r3, [r4, #0]
   22bfc:	e7f5      	b.n	22bea <snprintf+0x76>
   22bfe:	bf00      	nop
   22c00:	20010448 	.word	0x20010448

00022c04 <__sread>:
   22c04:	b510      	push	{r4, lr}
   22c06:	460c      	mov	r4, r1
   22c08:	f9b1 100e 	ldrsh.w	r1, [r1, #14]
   22c0c:	f001 fc4a 	bl	244a4 <_read_r>
   22c10:	2800      	cmp	r0, #0
   22c12:	db03      	blt.n	22c1c <__sread+0x18>
   22c14:	6d23      	ldr	r3, [r4, #80]	@ 0x50
   22c16:	4403      	add	r3, r0
   22c18:	6523      	str	r3, [r4, #80]	@ 0x50
   22c1a:	bd10      	pop	{r4, pc}
   22c1c:	89a3      	ldrh	r3, [r4, #12]
   22c1e:	f423 5380 	bic.w	r3, r3, #4096	@ 0x1000
   22c22:	81a3      	strh	r3, [r4, #12]
   22c24:	bd10      	pop	{r4, pc}
   22c26:	bf00      	nop

00022c28 <__swrite>:
   22c28:	e92d 41f0 	stmdb	sp!, {r4, r5, r6, r7, r8, lr}
   22c2c:	460c      	mov	r4, r1
   22c2e:	f9b1 100c 	ldrsh.w	r1, [r1, #12]
   22c32:	461f      	mov	r7, r3
   22c34:	4605      	mov	r5, r0
   22c36:	05cb      	lsls	r3, r1, #23
   22c38:	4616      	mov	r6, r2
   22c3a:	d40b      	bmi.n	22c54 <__swrite+0x2c>
   22c3c:	f421 5180 	bic.w	r1, r1, #4096	@ 0x1000
   22c40:	463b      	mov	r3, r7
   22c42:	4632      	mov	r2, r6
   22c44:	4628      	mov	r0, r5
   22c46:	81a1      	strh	r1, [r4, #12]
   22c48:	f9b4 100e 	ldrsh.w	r1, [r4, #14]
   22c4c:	e8bd 41f0 	ldmia.w	sp!, {r4, r5, r6, r7, r8, lr}
   22c50:	f000 bb0e 	b.w	23270 <_write_r>
   22c54:	f9b4 100e 	ldrsh.w	r1, [r4, #14]
   22c58:	2302      	movs	r3, #2
   22c5a:	2200      	movs	r2, #0
   22c5c:	f001 fc0c 	bl	24478 <_lseek_r>
   22c60:	f9b4 100c 	ldrsh.w	r1, [r4, #12]
   22c64:	e7ea      	b.n	22c3c <__swrite+0x14>
   22c66:	bf00      	nop

00022c68 <__sseek>:
   22c68:	b510      	push	{r4, lr}
   22c6a:	460c      	mov	r4, r1
   22c6c:	f9b1 100e 	ldrsh.w	r1, [r1, #14]
   22c70:	f001 fc02 	bl	24478 <_lseek_r>
   22c74:	1c42      	adds	r2, r0, #1
   22c76:	f9b4 300c 	ldrsh.w	r3, [r4, #12]
   22c7a:	d004      	beq.n	22c86 <__sseek+0x1e>
   22c7c:	f443 5380 	orr.w	r3, r3, #4096	@ 0x1000
   22c80:	6520      	str	r0, [r4, #80]	@ 0x50
   22c82:	81a3      	strh	r3, [r4, #12]
   22c84:	bd10      	pop	{r4, pc}
   22c86:	f423 5380 	bic.w	r3, r3, #4096	@ 0x1000
   22c8a:	81a3      	strh	r3, [r4, #12]
   22c8c:	bd10      	pop	{r4, pc}
   22c8e:	bf00      	nop

00022c90 <__sclose>:
   22c90:	f9b1 100e 	ldrsh.w	r1, [r1, #14]
   22c94:	f001 ba38 	b.w	24108 <_close_r>

00022c98 <malloc>:
   22c98:	4b02      	ldr	r3, [pc, #8]	@ (22ca4 <malloc+0xc>)
   22c9a:	4601      	mov	r1, r0
   22c9c:	6818      	ldr	r0, [r3, #0]
   22c9e:	f000 b80b 	b.w	22cb8 <_malloc_r>
   22ca2:	bf00      	nop
   22ca4:	20010448 	.word	0x20010448

00022ca8 <free>:
   22ca8:	4b02      	ldr	r3, [pc, #8]	@ (22cb4 <free+0xc>)
   22caa:	4601      	mov	r1, r0
   22cac:	6818      	ldr	r0, [r3, #0]
   22cae:	f001 b92f 	b.w	23f10 <_free_r>
   22cb2:	bf00      	nop
   22cb4:	20010448 	.word	0x20010448

00022cb8 <_malloc_r>:
   22cb8:	f101 030b 	add.w	r3, r1, #11
   22cbc:	2b16      	cmp	r3, #22
   22cbe:	e92d 4ff0 	stmdb	sp!, {r4, r5, r6, r7, r8, r9, sl, fp, lr}
   22cc2:	4607      	mov	r7, r0
   22cc4:	b083      	sub	sp, #12
   22cc6:	d823      	bhi.n	22d10 <_malloc_r+0x58>
   22cc8:	2910      	cmp	r1, #16
   22cca:	f200 80af 	bhi.w	22e2c <_malloc_r+0x174>
   22cce:	f000 fd27 	bl	23720 <__malloc_lock>
   22cd2:	2510      	movs	r5, #16
   22cd4:	2318      	movs	r3, #24
   22cd6:	2002      	movs	r0, #2
   22cd8:	4ebd      	ldr	r6, [pc, #756]	@ (22fd0 <_malloc_r+0x318>)
   22cda:	4433      	add	r3, r6
   22cdc:	685c      	ldr	r4, [r3, #4]
   22cde:	f1a3 0208 	sub.w	r2, r3, #8
   22ce2:	4294      	cmp	r4, r2
   22ce4:	f000 8182 	beq.w	22fec <_malloc_r+0x334>
   22ce8:	6863      	ldr	r3, [r4, #4]
   22cea:	4638      	mov	r0, r7
   22cec:	f023 0303 	bic.w	r3, r3, #3
   22cf0:	e9d4 1202 	ldrd	r1, r2, [r4, #8]
   22cf4:	4423      	add	r3, r4
   22cf6:	60ca      	str	r2, [r1, #12]
   22cf8:	6091      	str	r1, [r2, #8]
   22cfa:	685a      	ldr	r2, [r3, #4]
   22cfc:	3408      	adds	r4, #8
   22cfe:	f042 0201 	orr.w	r2, r2, #1
   22d02:	605a      	str	r2, [r3, #4]
   22d04:	f000 fd12 	bl	2372c <__malloc_unlock>
   22d08:	4620      	mov	r0, r4
   22d0a:	b003      	add	sp, #12
   22d0c:	e8bd 8ff0 	ldmia.w	sp!, {r4, r5, r6, r7, r8, r9, sl, fp, pc}
   22d10:	2b00      	cmp	r3, #0
   22d12:	f023 0507 	bic.w	r5, r3, #7
   22d16:	f2c0 8089 	blt.w	22e2c <_malloc_r+0x174>
   22d1a:	42a9      	cmp	r1, r5
   22d1c:	f200 8086 	bhi.w	22e2c <_malloc_r+0x174>
   22d20:	f000 fcfe 	bl	23720 <__malloc_lock>
   22d24:	f5b5 7ffc 	cmp.w	r5, #504	@ 0x1f8
   22d28:	f0c0 81b6 	bcc.w	23098 <_malloc_r+0x3e0>
   22d2c:	0a6b      	lsrs	r3, r5, #9
   22d2e:	f000 8081 	beq.w	22e34 <_malloc_r+0x17c>
   22d32:	2b04      	cmp	r3, #4
   22d34:	f200 8180 	bhi.w	23038 <_malloc_r+0x380>
   22d38:	09ab      	lsrs	r3, r5, #6
   22d3a:	f103 0039 	add.w	r0, r3, #57	@ 0x39
   22d3e:	f103 0e38 	add.w	lr, r3, #56	@ 0x38
   22d42:	00c3      	lsls	r3, r0, #3
   22d44:	4ea2      	ldr	r6, [pc, #648]	@ (22fd0 <_malloc_r+0x318>)
   22d46:	4433      	add	r3, r6
   22d48:	f1a3 0c08 	sub.w	ip, r3, #8
   22d4c:	685c      	ldr	r4, [r3, #4]
   22d4e:	45a4      	cmp	ip, r4
   22d50:	d107      	bne.n	22d62 <_malloc_r+0xaa>
   22d52:	e00d      	b.n	22d70 <_malloc_r+0xb8>
   22d54:	2a00      	cmp	r2, #0
   22d56:	68e1      	ldr	r1, [r4, #12]
   22d58:	f280 8133 	bge.w	22fc2 <_malloc_r+0x30a>
   22d5c:	458c      	cmp	ip, r1
   22d5e:	460c      	mov	r4, r1
   22d60:	d006      	beq.n	22d70 <_malloc_r+0xb8>
   22d62:	6863      	ldr	r3, [r4, #4]
   22d64:	f023 0303 	bic.w	r3, r3, #3
   22d68:	1b5a      	subs	r2, r3, r5
   22d6a:	2a0f      	cmp	r2, #15
   22d6c:	ddf2      	ble.n	22d54 <_malloc_r+0x9c>
   22d6e:	4670      	mov	r0, lr
   22d70:	f8df 8260 	ldr.w	r8, [pc, #608]	@ 22fd4 <_malloc_r+0x31c>
   22d74:	6934      	ldr	r4, [r6, #16]
   22d76:	4544      	cmp	r4, r8
   22d78:	f000 80e7 	beq.w	22f4a <_malloc_r+0x292>
   22d7c:	6863      	ldr	r3, [r4, #4]
   22d7e:	f023 0c03 	bic.w	ip, r3, #3
   22d82:	ebac 0305 	sub.w	r3, ip, r5
   22d86:	2b0f      	cmp	r3, #15
   22d88:	f300 8196 	bgt.w	230b8 <_malloc_r+0x400>
   22d8c:	2b00      	cmp	r3, #0
   22d8e:	e9c6 8804 	strd	r8, r8, [r6, #16]
   22d92:	f280 8185 	bge.w	230a0 <_malloc_r+0x3e8>
   22d96:	f5bc 7f00 	cmp.w	ip, #512	@ 0x200
   22d9a:	f8d6 e004 	ldr.w	lr, [r6, #4]
   22d9e:	f080 812b 	bcs.w	22ff8 <_malloc_r+0x340>
   22da2:	ea4f 03dc 	mov.w	r3, ip, lsr #3
   22da6:	2201      	movs	r2, #1
   22da8:	ea4f 1c5c 	mov.w	ip, ip, lsr #5
   22dac:	3301      	adds	r3, #1
   22dae:	fa02 f20c 	lsl.w	r2, r2, ip
   22db2:	f856 1033 	ldr.w	r1, [r6, r3, lsl #3]
   22db6:	ea4e 0e02 	orr.w	lr, lr, r2
   22dba:	eb06 02c3 	add.w	r2, r6, r3, lsl #3
   22dbe:	3a08      	subs	r2, #8
   22dc0:	f8c6 e004 	str.w	lr, [r6, #4]
   22dc4:	e9c4 1202 	strd	r1, r2, [r4, #8]
   22dc8:	f846 4033 	str.w	r4, [r6, r3, lsl #3]
   22dcc:	60cc      	str	r4, [r1, #12]
   22dce:	1083      	asrs	r3, r0, #2
   22dd0:	f04f 0c01 	mov.w	ip, #1
   22dd4:	fa0c fc03 	lsl.w	ip, ip, r3
   22dd8:	45f4      	cmp	ip, lr
   22dda:	d831      	bhi.n	22e40 <_malloc_r+0x188>
   22ddc:	ea1c 0f0e 	tst.w	ip, lr
   22de0:	d107      	bne.n	22df2 <_malloc_r+0x13a>
   22de2:	f020 0003 	bic.w	r0, r0, #3
   22de6:	ea4f 0c4c 	mov.w	ip, ip, lsl #1
   22dea:	3004      	adds	r0, #4
   22dec:	ea1c 0f0e 	tst.w	ip, lr
   22df0:	d0f9      	beq.n	22de6 <_malloc_r+0x12e>
   22df2:	eb06 0ac0 	add.w	sl, r6, r0, lsl #3
   22df6:	4681      	mov	r9, r0
   22df8:	46d6      	mov	lr, sl
   22dfa:	f8de 300c 	ldr.w	r3, [lr, #12]
   22dfe:	e00b      	b.n	22e18 <_malloc_r+0x160>
   22e00:	685a      	ldr	r2, [r3, #4]
   22e02:	461c      	mov	r4, r3
   22e04:	68db      	ldr	r3, [r3, #12]
   22e06:	f022 0203 	bic.w	r2, r2, #3
   22e0a:	1b51      	subs	r1, r2, r5
   22e0c:	290f      	cmp	r1, #15
   22e0e:	f300 811f 	bgt.w	23050 <_malloc_r+0x398>
   22e12:	2900      	cmp	r1, #0
   22e14:	f280 8133 	bge.w	2307e <_malloc_r+0x3c6>
   22e18:	459e      	cmp	lr, r3
   22e1a:	d1f1      	bne.n	22e00 <_malloc_r+0x148>
   22e1c:	f109 0901 	add.w	r9, r9, #1
   22e20:	f10e 0e08 	add.w	lr, lr, #8
   22e24:	f019 0f03 	tst.w	r9, #3
   22e28:	d1e7      	bne.n	22dfa <_malloc_r+0x142>
   22e2a:	e169      	b.n	23100 <_malloc_r+0x448>
   22e2c:	230c      	movs	r3, #12
   22e2e:	603b      	str	r3, [r7, #0]
   22e30:	2400      	movs	r4, #0
   22e32:	e769      	b.n	22d08 <_malloc_r+0x50>
   22e34:	f44f 7300 	mov.w	r3, #512	@ 0x200
   22e38:	2040      	movs	r0, #64	@ 0x40
   22e3a:	f04f 0e3f 	mov.w	lr, #63	@ 0x3f
   22e3e:	e781      	b.n	22d44 <_malloc_r+0x8c>
   22e40:	68b4      	ldr	r4, [r6, #8]
   22e42:	6863      	ldr	r3, [r4, #4]
   22e44:	f023 0903 	bic.w	r9, r3, #3
   22e48:	eba9 0305 	sub.w	r3, r9, r5
   22e4c:	2b0f      	cmp	r3, #15
   22e4e:	dd02      	ble.n	22e56 <_malloc_r+0x19e>
   22e50:	45a9      	cmp	r9, r5
   22e52:	f080 80a5 	bcs.w	22fa0 <_malloc_r+0x2e8>
   22e56:	4b60      	ldr	r3, [pc, #384]	@ (22fd8 <_malloc_r+0x320>)
   22e58:	2008      	movs	r0, #8
   22e5a:	681b      	ldr	r3, [r3, #0]
   22e5c:	f103 0810 	add.w	r8, r3, #16
   22e60:	eb04 0309 	add.w	r3, r4, r9
   22e64:	9300      	str	r3, [sp, #0]
   22e66:	f000 fdaf 	bl	239c8 <sysconf>
   22e6a:	4a5c      	ldr	r2, [pc, #368]	@ (22fdc <_malloc_r+0x324>)
   22e6c:	44a8      	add	r8, r5
   22e6e:	4683      	mov	fp, r0
   22e70:	6813      	ldr	r3, [r2, #0]
   22e72:	3301      	adds	r3, #1
   22e74:	d005      	beq.n	22e82 <_malloc_r+0x1ca>
   22e76:	f108 38ff 	add.w	r8, r8, #4294967295	@ 0xffffffff
   22e7a:	4243      	negs	r3, r0
   22e7c:	4480      	add	r8, r0
   22e7e:	ea03 0808 	and.w	r8, r3, r8
   22e82:	4641      	mov	r1, r8
   22e84:	4638      	mov	r0, r7
   22e86:	f000 f9e1 	bl	2324c <_sbrk_r>
   22e8a:	f1b0 3fff 	cmp.w	r0, #4294967295	@ 0xffffffff
   22e8e:	4682      	mov	sl, r0
   22e90:	4a52      	ldr	r2, [pc, #328]	@ (22fdc <_malloc_r+0x324>)
   22e92:	d07a      	beq.n	22f8a <_malloc_r+0x2d2>
   22e94:	eb04 0309 	add.w	r3, r4, r9
   22e98:	4283      	cmp	r3, r0
   22e9a:	d959      	bls.n	22f50 <_malloc_r+0x298>
   22e9c:	42b4      	cmp	r4, r6
   22e9e:	d174      	bne.n	22f8a <_malloc_r+0x2d2>
   22ea0:	4b4f      	ldr	r3, [pc, #316]	@ (22fe0 <_malloc_r+0x328>)
   22ea2:	f10b 3cff 	add.w	ip, fp, #4294967295	@ 0xffffffff
   22ea6:	6818      	ldr	r0, [r3, #0]
   22ea8:	4440      	add	r0, r8
   22eaa:	6018      	str	r0, [r3, #0]
   22eac:	6811      	ldr	r1, [r2, #0]
   22eae:	3101      	adds	r1, #1
   22eb0:	f000 8176 	beq.w	231a0 <_malloc_r+0x4e8>
   22eb4:	eb04 0209 	add.w	r2, r4, r9
   22eb8:	ebaa 0202 	sub.w	r2, sl, r2
   22ebc:	4402      	add	r2, r0
   22ebe:	601a      	str	r2, [r3, #0]
   22ec0:	f01a 0207 	ands.w	r2, sl, #7
   22ec4:	e9cd 2300 	strd	r2, r3, [sp]
   22ec8:	f000 8144 	beq.w	23154 <_malloc_r+0x49c>
   22ecc:	f1c2 0208 	rsb	r2, r2, #8
   22ed0:	4638      	mov	r0, r7
   22ed2:	4492      	add	sl, r2
   22ed4:	445a      	add	r2, fp
   22ed6:	44d0      	add	r8, sl
   22ed8:	ea08 010c 	and.w	r1, r8, ip
   22edc:	1a52      	subs	r2, r2, r1
   22ede:	ea02 0b0c 	and.w	fp, r2, ip
   22ee2:	4659      	mov	r1, fp
   22ee4:	f000 f9b2 	bl	2324c <_sbrk_r>
   22ee8:	1c42      	adds	r2, r0, #1
   22eea:	9b01      	ldr	r3, [sp, #4]
   22eec:	f000 8170 	beq.w	231d0 <_malloc_r+0x518>
   22ef0:	eba0 000a 	sub.w	r0, r0, sl
   22ef4:	eb00 080b 	add.w	r8, r0, fp
   22ef8:	6819      	ldr	r1, [r3, #0]
   22efa:	f048 0201 	orr.w	r2, r8, #1
   22efe:	42b4      	cmp	r4, r6
   22f00:	f8c6 a008 	str.w	sl, [r6, #8]
   22f04:	4459      	add	r1, fp
   22f06:	f8ca 2004 	str.w	r2, [sl, #4]
   22f0a:	6019      	str	r1, [r3, #0]
   22f0c:	d033      	beq.n	22f76 <_malloc_r+0x2be>
   22f0e:	f1b9 0f0f 	cmp.w	r9, #15
   22f12:	f240 810e 	bls.w	23132 <_malloc_r+0x47a>
   22f16:	6860      	ldr	r0, [r4, #4]
   22f18:	f1a9 020c 	sub.w	r2, r9, #12
   22f1c:	f04f 0c05 	mov.w	ip, #5
   22f20:	f022 0207 	bic.w	r2, r2, #7
   22f24:	f000 0001 	and.w	r0, r0, #1
   22f28:	4310      	orrs	r0, r2
   22f2a:	2a0f      	cmp	r2, #15
   22f2c:	6060      	str	r0, [r4, #4]
   22f2e:	eb04 0002 	add.w	r0, r4, r2
   22f32:	e9c0 cc01 	strd	ip, ip, [r0, #4]
   22f36:	d91e      	bls.n	22f76 <_malloc_r+0x2be>
   22f38:	f104 0108 	add.w	r1, r4, #8
   22f3c:	4638      	mov	r0, r7
   22f3e:	9300      	str	r3, [sp, #0]
   22f40:	f000 ffe6 	bl	23f10 <_free_r>
   22f44:	9b00      	ldr	r3, [sp, #0]
   22f46:	6819      	ldr	r1, [r3, #0]
   22f48:	e015      	b.n	22f76 <_malloc_r+0x2be>
   22f4a:	f8d6 e004 	ldr.w	lr, [r6, #4]
   22f4e:	e73e      	b.n	22dce <_malloc_r+0x116>
   22f50:	4b23      	ldr	r3, [pc, #140]	@ (22fe0 <_malloc_r+0x328>)
   22f52:	f10b 3cff 	add.w	ip, fp, #4294967295	@ 0xffffffff
   22f56:	6819      	ldr	r1, [r3, #0]
   22f58:	4441      	add	r1, r8
   22f5a:	4608      	mov	r0, r1
   22f5c:	6019      	str	r1, [r3, #0]
   22f5e:	d1a5      	bne.n	22eac <_malloc_r+0x1f4>
   22f60:	eb04 0e09 	add.w	lr, r4, r9
   22f64:	ea1e 0f0c 	tst.w	lr, ip
   22f68:	d1a0      	bne.n	22eac <_malloc_r+0x1f4>
   22f6a:	eb09 0308 	add.w	r3, r9, r8
   22f6e:	68b2      	ldr	r2, [r6, #8]
   22f70:	f043 0301 	orr.w	r3, r3, #1
   22f74:	6053      	str	r3, [r2, #4]
   22f76:	4b1b      	ldr	r3, [pc, #108]	@ (22fe4 <_malloc_r+0x32c>)
   22f78:	681a      	ldr	r2, [r3, #0]
   22f7a:	428a      	cmp	r2, r1
   22f7c:	bf38      	it	cc
   22f7e:	6019      	strcc	r1, [r3, #0]
   22f80:	4b19      	ldr	r3, [pc, #100]	@ (22fe8 <_malloc_r+0x330>)
   22f82:	681a      	ldr	r2, [r3, #0]
   22f84:	428a      	cmp	r2, r1
   22f86:	bf38      	it	cc
   22f88:	6019      	strcc	r1, [r3, #0]
   22f8a:	68b4      	ldr	r4, [r6, #8]
   22f8c:	6862      	ldr	r2, [r4, #4]
   22f8e:	f022 0203 	bic.w	r2, r2, #3
   22f92:	1b53      	subs	r3, r2, r5
   22f94:	2b0f      	cmp	r3, #15
   22f96:	f340 80cf 	ble.w	23138 <_malloc_r+0x480>
   22f9a:	4295      	cmp	r5, r2
   22f9c:	f200 80cc 	bhi.w	23138 <_malloc_r+0x480>
   22fa0:	1962      	adds	r2, r4, r5
   22fa2:	f045 0501 	orr.w	r5, r5, #1
   22fa6:	f043 0301 	orr.w	r3, r3, #1
   22faa:	3408      	adds	r4, #8
   22fac:	f844 5c04 	str.w	r5, [r4, #-4]
   22fb0:	4638      	mov	r0, r7
   22fb2:	60b2      	str	r2, [r6, #8]
   22fb4:	6053      	str	r3, [r2, #4]
   22fb6:	f000 fbb9 	bl	2372c <__malloc_unlock>
   22fba:	4620      	mov	r0, r4
   22fbc:	b003      	add	sp, #12
   22fbe:	e8bd 8ff0 	ldmia.w	sp!, {r4, r5, r6, r7, r8, r9, sl, fp, pc}
   22fc2:	68a2      	ldr	r2, [r4, #8]
   22fc4:	4423      	add	r3, r4
   22fc6:	4638      	mov	r0, r7
   22fc8:	60d1      	str	r1, [r2, #12]
   22fca:	608a      	str	r2, [r1, #8]
   22fcc:	e695      	b.n	22cfa <_malloc_r+0x42>
   22fce:	bf00      	nop
   22fd0:	20010040 	.word	0x20010040
   22fd4:	20010048 	.word	0x20010048
   22fd8:	200109e8 	.word	0x200109e8
   22fdc:	20010034 	.word	0x20010034
   22fe0:	200109b8 	.word	0x200109b8
   22fe4:	200109e4 	.word	0x200109e4
   22fe8:	200109e0 	.word	0x200109e0
   22fec:	68dc      	ldr	r4, [r3, #12]
   22fee:	42a3      	cmp	r3, r4
   22ff0:	f47f ae7a 	bne.w	22ce8 <_malloc_r+0x30>
   22ff4:	3002      	adds	r0, #2
   22ff6:	e6bb      	b.n	22d70 <_malloc_r+0xb8>
   22ff8:	f5bc 6f20 	cmp.w	ip, #2560	@ 0xa00
   22ffc:	ea4f 225c 	mov.w	r2, ip, lsr #9
   23000:	d36c      	bcc.n	230dc <_malloc_r+0x424>
   23002:	2a14      	cmp	r2, #20
   23004:	f200 80b9 	bhi.w	2317a <_malloc_r+0x4c2>
   23008:	f102 035c 	add.w	r3, r2, #92	@ 0x5c
   2300c:	325b      	adds	r2, #91	@ 0x5b
   2300e:	00db      	lsls	r3, r3, #3
   23010:	18f1      	adds	r1, r6, r3
   23012:	58f3      	ldr	r3, [r6, r3]
   23014:	3908      	subs	r1, #8
   23016:	4299      	cmp	r1, r3
   23018:	d103      	bne.n	23022 <_malloc_r+0x36a>
   2301a:	e091      	b.n	23140 <_malloc_r+0x488>
   2301c:	689b      	ldr	r3, [r3, #8]
   2301e:	4299      	cmp	r1, r3
   23020:	d004      	beq.n	2302c <_malloc_r+0x374>
   23022:	685a      	ldr	r2, [r3, #4]
   23024:	f022 0203 	bic.w	r2, r2, #3
   23028:	4562      	cmp	r2, ip
   2302a:	d8f7      	bhi.n	2301c <_malloc_r+0x364>
   2302c:	68d9      	ldr	r1, [r3, #12]
   2302e:	e9c4 3102 	strd	r3, r1, [r4, #8]
   23032:	608c      	str	r4, [r1, #8]
   23034:	60dc      	str	r4, [r3, #12]
   23036:	e6ca      	b.n	22dce <_malloc_r+0x116>
   23038:	2b14      	cmp	r3, #20
   2303a:	d956      	bls.n	230ea <_malloc_r+0x432>
   2303c:	2b54      	cmp	r3, #84	@ 0x54
   2303e:	f200 80a5 	bhi.w	2318c <_malloc_r+0x4d4>
   23042:	0b2b      	lsrs	r3, r5, #12
   23044:	f103 006f 	add.w	r0, r3, #111	@ 0x6f
   23048:	f103 0e6e 	add.w	lr, r3, #110	@ 0x6e
   2304c:	00c3      	lsls	r3, r0, #3
   2304e:	e679      	b.n	22d44 <_malloc_r+0x8c>
   23050:	f8d4 c008 	ldr.w	ip, [r4, #8]
   23054:	4638      	mov	r0, r7
   23056:	1967      	adds	r7, r4, r5
   23058:	f045 0501 	orr.w	r5, r5, #1
   2305c:	6065      	str	r5, [r4, #4]
   2305e:	f8cc 300c 	str.w	r3, [ip, #12]
   23062:	f8c3 c008 	str.w	ip, [r3, #8]
   23066:	f041 0301 	orr.w	r3, r1, #1
   2306a:	e9c6 7704 	strd	r7, r7, [r6, #16]
   2306e:	e9c7 8802 	strd	r8, r8, [r7, #8]
   23072:	607b      	str	r3, [r7, #4]
   23074:	50a1      	str	r1, [r4, r2]
   23076:	3408      	adds	r4, #8
   23078:	f000 fb58 	bl	2372c <__malloc_unlock>
   2307c:	e644      	b.n	22d08 <_malloc_r+0x50>
   2307e:	4422      	add	r2, r4
   23080:	4638      	mov	r0, r7
   23082:	6851      	ldr	r1, [r2, #4]
   23084:	f041 0101 	orr.w	r1, r1, #1
   23088:	6051      	str	r1, [r2, #4]
   2308a:	f854 2f08 	ldr.w	r2, [r4, #8]!
   2308e:	60d3      	str	r3, [r2, #12]
   23090:	609a      	str	r2, [r3, #8]
   23092:	f000 fb4b 	bl	2372c <__malloc_unlock>
   23096:	e637      	b.n	22d08 <_malloc_r+0x50>
   23098:	08e8      	lsrs	r0, r5, #3
   2309a:	f105 0308 	add.w	r3, r5, #8
   2309e:	e61b      	b.n	22cd8 <_malloc_r+0x20>
   230a0:	44a4      	add	ip, r4
   230a2:	4638      	mov	r0, r7
   230a4:	3408      	adds	r4, #8
   230a6:	f8dc 3004 	ldr.w	r3, [ip, #4]
   230aa:	f043 0301 	orr.w	r3, r3, #1
   230ae:	f8cc 3004 	str.w	r3, [ip, #4]
   230b2:	f000 fb3b 	bl	2372c <__malloc_unlock>
   230b6:	e627      	b.n	22d08 <_malloc_r+0x50>
   230b8:	1962      	adds	r2, r4, r5
   230ba:	f043 0101 	orr.w	r1, r3, #1
   230be:	f045 0501 	orr.w	r5, r5, #1
   230c2:	4638      	mov	r0, r7
   230c4:	6065      	str	r5, [r4, #4]
   230c6:	e9c6 2204 	strd	r2, r2, [r6, #16]
   230ca:	e9c2 8802 	strd	r8, r8, [r2, #8]
   230ce:	6051      	str	r1, [r2, #4]
   230d0:	f844 300c 	str.w	r3, [r4, ip]
   230d4:	3408      	adds	r4, #8
   230d6:	f000 fb29 	bl	2372c <__malloc_unlock>
   230da:	e615      	b.n	22d08 <_malloc_r+0x50>
   230dc:	ea4f 129c 	mov.w	r2, ip, lsr #6
   230e0:	f102 0339 	add.w	r3, r2, #57	@ 0x39
   230e4:	3238      	adds	r2, #56	@ 0x38
   230e6:	00db      	lsls	r3, r3, #3
   230e8:	e792      	b.n	23010 <_malloc_r+0x358>
   230ea:	f103 005c 	add.w	r0, r3, #92	@ 0x5c
   230ee:	f103 0e5b 	add.w	lr, r3, #91	@ 0x5b
   230f2:	00c3      	lsls	r3, r0, #3
   230f4:	e626      	b.n	22d44 <_malloc_r+0x8c>
   230f6:	f85a 3908 	ldr.w	r3, [sl], #-8
   230fa:	4553      	cmp	r3, sl
   230fc:	f040 8085 	bne.w	2320a <_malloc_r+0x552>
   23100:	f010 0f03 	tst.w	r0, #3
   23104:	f100 30ff 	add.w	r0, r0, #4294967295	@ 0xffffffff
   23108:	d1f5      	bne.n	230f6 <_malloc_r+0x43e>
   2310a:	6873      	ldr	r3, [r6, #4]
   2310c:	ea23 030c 	bic.w	r3, r3, ip
   23110:	6073      	str	r3, [r6, #4]
   23112:	ea4f 0c4c 	mov.w	ip, ip, lsl #1
   23116:	f10c 32ff 	add.w	r2, ip, #4294967295	@ 0xffffffff
   2311a:	429a      	cmp	r2, r3
   2311c:	d304      	bcc.n	23128 <_malloc_r+0x470>
   2311e:	e68f      	b.n	22e40 <_malloc_r+0x188>
   23120:	ea4f 0c4c 	mov.w	ip, ip, lsl #1
   23124:	f109 0904 	add.w	r9, r9, #4
   23128:	ea1c 0f03 	tst.w	ip, r3
   2312c:	d0f8      	beq.n	23120 <_malloc_r+0x468>
   2312e:	4648      	mov	r0, r9
   23130:	e65f      	b.n	22df2 <_malloc_r+0x13a>
   23132:	2301      	movs	r3, #1
   23134:	f8ca 3004 	str.w	r3, [sl, #4]
   23138:	4638      	mov	r0, r7
   2313a:	f000 faf7 	bl	2372c <__malloc_unlock>
   2313e:	e677      	b.n	22e30 <_malloc_r+0x178>
   23140:	1092      	asrs	r2, r2, #2
   23142:	f04f 0c01 	mov.w	ip, #1
   23146:	fa0c f202 	lsl.w	r2, ip, r2
   2314a:	ea4e 0e02 	orr.w	lr, lr, r2
   2314e:	f8c6 e004 	str.w	lr, [r6, #4]
   23152:	e76c      	b.n	2302e <_malloc_r+0x376>
   23154:	eb0a 0208 	add.w	r2, sl, r8
   23158:	4638      	mov	r0, r7
   2315a:	ea02 020c 	and.w	r2, r2, ip
   2315e:	ebab 0b02 	sub.w	fp, fp, r2
   23162:	ea0b 0b0c 	and.w	fp, fp, ip
   23166:	4659      	mov	r1, fp
   23168:	f000 f870 	bl	2324c <_sbrk_r>
   2316c:	1c43      	adds	r3, r0, #1
   2316e:	9b01      	ldr	r3, [sp, #4]
   23170:	f47f aebe 	bne.w	22ef0 <_malloc_r+0x238>
   23174:	f8dd b000 	ldr.w	fp, [sp]
   23178:	e6be      	b.n	22ef8 <_malloc_r+0x240>
   2317a:	2a54      	cmp	r2, #84	@ 0x54
   2317c:	d813      	bhi.n	231a6 <_malloc_r+0x4ee>
   2317e:	ea4f 321c 	mov.w	r2, ip, lsr #12
   23182:	f102 036f 	add.w	r3, r2, #111	@ 0x6f
   23186:	326e      	adds	r2, #110	@ 0x6e
   23188:	00db      	lsls	r3, r3, #3
   2318a:	e741      	b.n	23010 <_malloc_r+0x358>
   2318c:	f5b3 7faa 	cmp.w	r3, #340	@ 0x154
   23190:	d813      	bhi.n	231ba <_malloc_r+0x502>
   23192:	0beb      	lsrs	r3, r5, #15
   23194:	f103 0078 	add.w	r0, r3, #120	@ 0x78
   23198:	f103 0e77 	add.w	lr, r3, #119	@ 0x77
   2319c:	00c3      	lsls	r3, r0, #3
   2319e:	e5d1      	b.n	22d44 <_malloc_r+0x8c>
   231a0:	f8c2 a000 	str.w	sl, [r2]
   231a4:	e68c      	b.n	22ec0 <_malloc_r+0x208>
   231a6:	f5b2 7faa 	cmp.w	r2, #340	@ 0x154
   231aa:	d819      	bhi.n	231e0 <_malloc_r+0x528>
   231ac:	ea4f 32dc 	mov.w	r2, ip, lsr #15
   231b0:	f102 0378 	add.w	r3, r2, #120	@ 0x78
   231b4:	3277      	adds	r2, #119	@ 0x77
   231b6:	00db      	lsls	r3, r3, #3
   231b8:	e72a      	b.n	23010 <_malloc_r+0x358>
   231ba:	f240 5254 	movw	r2, #1364	@ 0x554
   231be:	4293      	cmp	r3, r2
   231c0:	d819      	bhi.n	231f6 <_malloc_r+0x53e>
   231c2:	0cab      	lsrs	r3, r5, #18
   231c4:	f103 007d 	add.w	r0, r3, #125	@ 0x7d
   231c8:	f103 0e7c 	add.w	lr, r3, #124	@ 0x7c
   231cc:	00c3      	lsls	r3, r0, #3
   231ce:	e5b9      	b.n	22d44 <_malloc_r+0x8c>
   231d0:	9a00      	ldr	r2, [sp, #0]
   231d2:	f04f 0b00 	mov.w	fp, #0
   231d6:	3a08      	subs	r2, #8
   231d8:	4490      	add	r8, r2
   231da:	eba8 080a 	sub.w	r8, r8, sl
   231de:	e68b      	b.n	22ef8 <_malloc_r+0x240>
   231e0:	f240 5354 	movw	r3, #1364	@ 0x554
   231e4:	429a      	cmp	r2, r3
   231e6:	d80c      	bhi.n	23202 <_malloc_r+0x54a>
   231e8:	ea4f 429c 	mov.w	r2, ip, lsr #18
   231ec:	f102 037d 	add.w	r3, r2, #125	@ 0x7d
   231f0:	327c      	adds	r2, #124	@ 0x7c
   231f2:	00db      	lsls	r3, r3, #3
   231f4:	e70c      	b.n	23010 <_malloc_r+0x358>
   231f6:	f44f 737e 	mov.w	r3, #1016	@ 0x3f8
   231fa:	207f      	movs	r0, #127	@ 0x7f
   231fc:	f04f 0e7e 	mov.w	lr, #126	@ 0x7e
   23200:	e5a0      	b.n	22d44 <_malloc_r+0x8c>
   23202:	f44f 737e 	mov.w	r3, #1016	@ 0x3f8
   23206:	227e      	movs	r2, #126	@ 0x7e
   23208:	e702      	b.n	23010 <_malloc_r+0x358>
   2320a:	6873      	ldr	r3, [r6, #4]
   2320c:	e781      	b.n	23112 <_malloc_r+0x45a>
   2320e:	bf00      	nop

00023210 <__assert_func>:
   23210:	4d0a      	ldr	r5, [pc, #40]	@ (2323c <__assert_func+0x2c>)
   23212:	4614      	mov	r4, r2
   23214:	461a      	mov	r2, r3
   23216:	4603      	mov	r3, r0
   23218:	682e      	ldr	r6, [r5, #0]
   2321a:	460d      	mov	r5, r1
   2321c:	b500      	push	{lr}
   2321e:	68f0      	ldr	r0, [r6, #12]
   23220:	b085      	sub	sp, #20
   23222:	b144      	cbz	r4, 23236 <__assert_func+0x26>
   23224:	4906      	ldr	r1, [pc, #24]	@ (23240 <__assert_func+0x30>)
   23226:	9500      	str	r5, [sp, #0]
   23228:	e9cd 1401 	strd	r1, r4, [sp, #4]
   2322c:	4905      	ldr	r1, [pc, #20]	@ (23244 <__assert_func+0x34>)
   2322e:	f000 ffdd 	bl	241ec <fiprintf>
   23232:	f005 fd61 	bl	28cf8 <abort>
   23236:	4904      	ldr	r1, [pc, #16]	@ (23248 <__assert_func+0x38>)
   23238:	460c      	mov	r4, r1
   2323a:	e7f4      	b.n	23226 <__assert_func+0x16>
   2323c:	20010448 	.word	0x20010448
   23240:	00030130 	.word	0x00030130
   23244:	00030140 	.word	0x00030140
   23248:	0003013c 	.word	0x0003013c

0002324c <_sbrk_r>:
   2324c:	b538      	push	{r3, r4, r5, lr}
   2324e:	2200      	movs	r2, #0
   23250:	4d06      	ldr	r5, [pc, #24]	@ (2326c <_sbrk_r+0x20>)
   23252:	4604      	mov	r4, r0
   23254:	4608      	mov	r0, r1
   23256:	602a      	str	r2, [r5, #0]
   23258:	f7fe f800 	bl	2125c <_sbrk>
   2325c:	1c43      	adds	r3, r0, #1
   2325e:	d000      	beq.n	23262 <_sbrk_r+0x16>
   23260:	bd38      	pop	{r3, r4, r5, pc}
   23262:	682b      	ldr	r3, [r5, #0]
   23264:	2b00      	cmp	r3, #0
   23266:	d0fb      	beq.n	23260 <_sbrk_r+0x14>
   23268:	6023      	str	r3, [r4, #0]
   2326a:	bd38      	pop	{r3, r4, r5, pc}
   2326c:	200109f4 	.word	0x200109f4

00023270 <_write_r>:
   23270:	b538      	push	{r3, r4, r5, lr}
   23272:	460c      	mov	r4, r1
   23274:	4684      	mov	ip, r0
   23276:	4611      	mov	r1, r2
   23278:	4d07      	ldr	r5, [pc, #28]	@ (23298 <_write_r+0x28>)
   2327a:	461a      	mov	r2, r3
   2327c:	2300      	movs	r3, #0
   2327e:	4620      	mov	r0, r4
   23280:	4664      	mov	r4, ip
   23282:	602b      	str	r3, [r5, #0]
   23284:	f7fd ffb9 	bl	211fa <_write>
   23288:	1c43      	adds	r3, r0, #1
   2328a:	d000      	beq.n	2328e <_write_r+0x1e>
   2328c:	bd38      	pop	{r3, r4, r5, pc}
   2328e:	682b      	ldr	r3, [r5, #0]
   23290:	2b00      	cmp	r3, #0
   23292:	d0fb      	beq.n	2328c <_write_r+0x1c>
   23294:	6023      	str	r3, [r4, #0]
   23296:	bd38      	pop	{r3, r4, r5, pc}
   23298:	200109f4 	.word	0x200109f4

0002329c <__errno>:
   2329c:	4b01      	ldr	r3, [pc, #4]	@ (232a4 <__errno+0x8>)
   2329e:	6818      	ldr	r0, [r3, #0]
   232a0:	4770      	bx	lr
   232a2:	bf00      	nop
   232a4:	20010448 	.word	0x20010448

000232a8 <vsnprintf>:
   232a8:	b510      	push	{r4, lr}
   232aa:	2900      	cmp	r1, #0
   232ac:	4c1b      	ldr	r4, [pc, #108]	@ (2331c <vsnprintf+0x74>)
   232ae:	b09a      	sub	sp, #104	@ 0x68
   232b0:	6824      	ldr	r4, [r4, #0]
   232b2:	db2d      	blt.n	23310 <vsnprintf+0x68>
   232b4:	9000      	str	r0, [sp, #0]
   232b6:	9004      	str	r0, [sp, #16]
   232b8:	f44f 7002 	mov.w	r0, #520	@ 0x208
   232bc:	f8ad 000c 	strh.w	r0, [sp, #12]
   232c0:	f04f 0000 	mov.w	r0, #0
   232c4:	9019      	str	r0, [sp, #100]	@ 0x64
   232c6:	d013      	beq.n	232f0 <vsnprintf+0x48>
   232c8:	3901      	subs	r1, #1
   232ca:	f64f 70ff 	movw	r0, #65535	@ 0xffff
   232ce:	9102      	str	r1, [sp, #8]
   232d0:	9105      	str	r1, [sp, #20]
   232d2:	4669      	mov	r1, sp
   232d4:	f8ad 000e 	strh.w	r0, [sp, #14]
   232d8:	4620      	mov	r0, r4
   232da:	f001 f8f9 	bl	244d0 <_svfprintf_r>
   232de:	1c42      	adds	r2, r0, #1
   232e0:	da01      	bge.n	232e6 <vsnprintf+0x3e>
   232e2:	238b      	movs	r3, #139	@ 0x8b
   232e4:	6023      	str	r3, [r4, #0]
   232e6:	9b00      	ldr	r3, [sp, #0]
   232e8:	2200      	movs	r2, #0
   232ea:	701a      	strb	r2, [r3, #0]
   232ec:	b01a      	add	sp, #104	@ 0x68
   232ee:	bd10      	pop	{r4, pc}
   232f0:	f64f 70ff 	movw	r0, #65535	@ 0xffff
   232f4:	9102      	str	r1, [sp, #8]
   232f6:	9105      	str	r1, [sp, #20]
   232f8:	4669      	mov	r1, sp
   232fa:	f8ad 000e 	strh.w	r0, [sp, #14]
   232fe:	4620      	mov	r0, r4
   23300:	f001 f8e6 	bl	244d0 <_svfprintf_r>
   23304:	1c43      	adds	r3, r0, #1
   23306:	da01      	bge.n	2330c <vsnprintf+0x64>
   23308:	238b      	movs	r3, #139	@ 0x8b
   2330a:	6023      	str	r3, [r4, #0]
   2330c:	b01a      	add	sp, #104	@ 0x68
   2330e:	bd10      	pop	{r4, pc}
   23310:	238b      	movs	r3, #139	@ 0x8b
   23312:	f04f 30ff 	mov.w	r0, #4294967295	@ 0xffffffff
   23316:	6023      	str	r3, [r4, #0]
   23318:	e7f8      	b.n	2330c <vsnprintf+0x64>
   2331a:	bf00      	nop
   2331c:	20010448 	.word	0x20010448

00023320 <__sfvwrite_r>:
   23320:	6893      	ldr	r3, [r2, #8]
   23322:	2b00      	cmp	r3, #0
   23324:	f000 80f7 	beq.w	23516 <__sfvwrite_r+0x1f6>
   23328:	f9b1 c00c 	ldrsh.w	ip, [r1, #12]
   2332c:	f01c 0f08 	tst.w	ip, #8
   23330:	e92d 4ff0 	stmdb	sp!, {r4, r5, r6, r7, r8, r9, sl, fp, lr}
   23334:	4690      	mov	r8, r2
   23336:	b083      	sub	sp, #12
   23338:	4681      	mov	r9, r0
   2333a:	460c      	mov	r4, r1
   2333c:	d031      	beq.n	233a2 <__sfvwrite_r+0x82>
   2333e:	690b      	ldr	r3, [r1, #16]
   23340:	b37b      	cbz	r3, 233a2 <__sfvwrite_r+0x82>
   23342:	f01c 0702 	ands.w	r7, ip, #2
   23346:	f8d8 6000 	ldr.w	r6, [r8]
   2334a:	d038      	beq.n	233be <__sfvwrite_r+0x9e>
   2334c:	2700      	movs	r7, #0
   2334e:	f8d4 b024 	ldr.w	fp, [r4, #36]	@ 0x24
   23352:	69e1      	ldr	r1, [r4, #28]
   23354:	f8df a2bc 	ldr.w	sl, [pc, #700]	@ 23614 <__sfvwrite_r+0x2f4>
   23358:	463d      	mov	r5, r7
   2335a:	4555      	cmp	r5, sl
   2335c:	462b      	mov	r3, r5
   2335e:	463a      	mov	r2, r7
   23360:	4648      	mov	r0, r9
   23362:	bf28      	it	cs
   23364:	4653      	movcs	r3, sl
   23366:	b1c5      	cbz	r5, 2339a <__sfvwrite_r+0x7a>
   23368:	47d8      	blx	fp
   2336a:	2800      	cmp	r0, #0
   2336c:	f340 80c9 	ble.w	23502 <__sfvwrite_r+0x1e2>
   23370:	f8d8 3008 	ldr.w	r3, [r8, #8]
   23374:	4407      	add	r7, r0
   23376:	1a2d      	subs	r5, r5, r0
   23378:	1a1b      	subs	r3, r3, r0
   2337a:	f8c8 3008 	str.w	r3, [r8, #8]
   2337e:	2b00      	cmp	r3, #0
   23380:	f000 80b5 	beq.w	234ee <__sfvwrite_r+0x1ce>
   23384:	4555      	cmp	r5, sl
   23386:	462b      	mov	r3, r5
   23388:	f8d4 b024 	ldr.w	fp, [r4, #36]	@ 0x24
   2338c:	463a      	mov	r2, r7
   2338e:	69e1      	ldr	r1, [r4, #28]
   23390:	bf28      	it	cs
   23392:	4653      	movcs	r3, sl
   23394:	4648      	mov	r0, r9
   23396:	2d00      	cmp	r5, #0
   23398:	d1e6      	bne.n	23368 <__sfvwrite_r+0x48>
   2339a:	e9d6 7500 	ldrd	r7, r5, [r6]
   2339e:	3608      	adds	r6, #8
   233a0:	e7db      	b.n	2335a <__sfvwrite_r+0x3a>
   233a2:	4621      	mov	r1, r4
   233a4:	4648      	mov	r0, r9
   233a6:	f000 f959 	bl	2365c <__swsetup_r>
   233aa:	2800      	cmp	r0, #0
   233ac:	f040 80ae 	bne.w	2350c <__sfvwrite_r+0x1ec>
   233b0:	f9b4 c00c 	ldrsh.w	ip, [r4, #12]
   233b4:	f8d8 6000 	ldr.w	r6, [r8]
   233b8:	f01c 0702 	ands.w	r7, ip, #2
   233bc:	d1c6      	bne.n	2334c <__sfvwrite_r+0x2c>
   233be:	f01c 0a01 	ands.w	sl, ip, #1
   233c2:	d164      	bne.n	2348e <__sfvwrite_r+0x16e>
   233c4:	6823      	ldr	r3, [r4, #0]
   233c6:	4657      	mov	r7, sl
   233c8:	68a1      	ldr	r1, [r4, #8]
   233ca:	4618      	mov	r0, r3
   233cc:	468b      	mov	fp, r1
   233ce:	2f00      	cmp	r7, #0
   233d0:	d059      	beq.n	23486 <__sfvwrite_r+0x166>
   233d2:	f41c 7f00 	tst.w	ip, #512	@ 0x200
   233d6:	f000 80b2 	beq.w	2353e <__sfvwrite_r+0x21e>
   233da:	42b9      	cmp	r1, r7
   233dc:	460a      	mov	r2, r1
   233de:	f200 80de 	bhi.w	2359e <__sfvwrite_r+0x27e>
   233e2:	f41c 6f90 	tst.w	ip, #1152	@ 0x480
   233e6:	d030      	beq.n	2344a <__sfvwrite_r+0x12a>
   233e8:	6921      	ldr	r1, [r4, #16]
   233ea:	1a5d      	subs	r5, r3, r1
   233ec:	6963      	ldr	r3, [r4, #20]
   233ee:	eb13 0343 	adds.w	r3, r3, r3, lsl #1
   233f2:	bf48      	it	mi
   233f4:	3301      	addmi	r3, #1
   233f6:	ea4f 0b63 	mov.w	fp, r3, asr #1
   233fa:	1c6b      	adds	r3, r5, #1
   233fc:	443b      	add	r3, r7
   233fe:	465a      	mov	r2, fp
   23400:	455b      	cmp	r3, fp
   23402:	d901      	bls.n	23408 <__sfvwrite_r+0xe8>
   23404:	469b      	mov	fp, r3
   23406:	461a      	mov	r2, r3
   23408:	f41c 6f80 	tst.w	ip, #1024	@ 0x400
   2340c:	f000 80e6 	beq.w	235dc <__sfvwrite_r+0x2bc>
   23410:	4611      	mov	r1, r2
   23412:	4648      	mov	r0, r9
   23414:	f7ff fc50 	bl	22cb8 <_malloc_r>
   23418:	2800      	cmp	r0, #0
   2341a:	f000 80f5 	beq.w	23608 <__sfvwrite_r+0x2e8>
   2341e:	462a      	mov	r2, r5
   23420:	6921      	ldr	r1, [r4, #16]
   23422:	9001      	str	r0, [sp, #4]
   23424:	f7ff fa34 	bl	22890 <memcpy>
   23428:	89a2      	ldrh	r2, [r4, #12]
   2342a:	9b01      	ldr	r3, [sp, #4]
   2342c:	f422 6290 	bic.w	r2, r2, #1152	@ 0x480
   23430:	f042 0280 	orr.w	r2, r2, #128	@ 0x80
   23434:	81a2      	strh	r2, [r4, #12]
   23436:	1958      	adds	r0, r3, r5
   23438:	f8c4 b014 	str.w	fp, [r4, #20]
   2343c:	ebab 0505 	sub.w	r5, fp, r5
   23440:	463a      	mov	r2, r7
   23442:	46bb      	mov	fp, r7
   23444:	6123      	str	r3, [r4, #16]
   23446:	60a5      	str	r5, [r4, #8]
   23448:	6020      	str	r0, [r4, #0]
   2344a:	4651      	mov	r1, sl
   2344c:	9201      	str	r2, [sp, #4]
   2344e:	f000 f9e1 	bl	23814 <memmove>
   23452:	68a1      	ldr	r1, [r4, #8]
   23454:	6823      	ldr	r3, [r4, #0]
   23456:	463d      	mov	r5, r7
   23458:	9a01      	ldr	r2, [sp, #4]
   2345a:	eba1 010b 	sub.w	r1, r1, fp
   2345e:	2700      	movs	r7, #0
   23460:	441a      	add	r2, r3
   23462:	60a1      	str	r1, [r4, #8]
   23464:	6022      	str	r2, [r4, #0]
   23466:	f8d8 3008 	ldr.w	r3, [r8, #8]
   2346a:	44aa      	add	sl, r5
   2346c:	1b5b      	subs	r3, r3, r5
   2346e:	f8c8 3008 	str.w	r3, [r8, #8]
   23472:	2b00      	cmp	r3, #0
   23474:	d03b      	beq.n	234ee <__sfvwrite_r+0x1ce>
   23476:	6823      	ldr	r3, [r4, #0]
   23478:	68a1      	ldr	r1, [r4, #8]
   2347a:	f9b4 c00c 	ldrsh.w	ip, [r4, #12]
   2347e:	4618      	mov	r0, r3
   23480:	468b      	mov	fp, r1
   23482:	2f00      	cmp	r7, #0
   23484:	d1a5      	bne.n	233d2 <__sfvwrite_r+0xb2>
   23486:	e9d6 a700 	ldrd	sl, r7, [r6]
   2348a:	3608      	adds	r6, #8
   2348c:	e79d      	b.n	233ca <__sfvwrite_r+0xaa>
   2348e:	4638      	mov	r0, r7
   23490:	46bb      	mov	fp, r7
   23492:	463d      	mov	r5, r7
   23494:	2d00      	cmp	r5, #0
   23496:	d040      	beq.n	2351a <__sfvwrite_r+0x1fa>
   23498:	2800      	cmp	r0, #0
   2349a:	d045      	beq.n	23528 <__sfvwrite_r+0x208>
   2349c:	463a      	mov	r2, r7
   2349e:	68a1      	ldr	r1, [r4, #8]
   234a0:	42aa      	cmp	r2, r5
   234a2:	6963      	ldr	r3, [r4, #20]
   234a4:	6820      	ldr	r0, [r4, #0]
   234a6:	bf28      	it	cs
   234a8:	462a      	movcs	r2, r5
   234aa:	eb03 0a01 	add.w	sl, r3, r1
   234ae:	6921      	ldr	r1, [r4, #16]
   234b0:	4288      	cmp	r0, r1
   234b2:	d902      	bls.n	234ba <__sfvwrite_r+0x19a>
   234b4:	4552      	cmp	r2, sl
   234b6:	f300 8082 	bgt.w	235be <__sfvwrite_r+0x29e>
   234ba:	4293      	cmp	r3, r2
   234bc:	dc72      	bgt.n	235a4 <__sfvwrite_r+0x284>
   234be:	465a      	mov	r2, fp
   234c0:	69e1      	ldr	r1, [r4, #28]
   234c2:	4648      	mov	r0, r9
   234c4:	f8d4 c024 	ldr.w	ip, [r4, #36]	@ 0x24
   234c8:	47e0      	blx	ip
   234ca:	f1b0 0a00 	subs.w	sl, r0, #0
   234ce:	dd18      	ble.n	23502 <__sfvwrite_r+0x1e2>
   234d0:	ebb7 070a 	subs.w	r7, r7, sl
   234d4:	d00f      	beq.n	234f6 <__sfvwrite_r+0x1d6>
   234d6:	2001      	movs	r0, #1
   234d8:	f8d8 3008 	ldr.w	r3, [r8, #8]
   234dc:	44d3      	add	fp, sl
   234de:	eba5 050a 	sub.w	r5, r5, sl
   234e2:	eba3 030a 	sub.w	r3, r3, sl
   234e6:	f8c8 3008 	str.w	r3, [r8, #8]
   234ea:	2b00      	cmp	r3, #0
   234ec:	d1d2      	bne.n	23494 <__sfvwrite_r+0x174>
   234ee:	2000      	movs	r0, #0
   234f0:	b003      	add	sp, #12
   234f2:	e8bd 8ff0 	ldmia.w	sp!, {r4, r5, r6, r7, r8, r9, sl, fp, pc}
   234f6:	4621      	mov	r1, r4
   234f8:	4648      	mov	r0, r9
   234fa:	f000 ff1f 	bl	2433c <_fflush_r>
   234fe:	2800      	cmp	r0, #0
   23500:	d0ea      	beq.n	234d8 <__sfvwrite_r+0x1b8>
   23502:	f9b4 300c 	ldrsh.w	r3, [r4, #12]
   23506:	f043 0340 	orr.w	r3, r3, #64	@ 0x40
   2350a:	81a3      	strh	r3, [r4, #12]
   2350c:	f04f 30ff 	mov.w	r0, #4294967295	@ 0xffffffff
   23510:	b003      	add	sp, #12
   23512:	e8bd 8ff0 	ldmia.w	sp!, {r4, r5, r6, r7, r8, r9, sl, fp, pc}
   23516:	2000      	movs	r0, #0
   23518:	4770      	bx	lr
   2351a:	6875      	ldr	r5, [r6, #4]
   2351c:	4633      	mov	r3, r6
   2351e:	3608      	adds	r6, #8
   23520:	2d00      	cmp	r5, #0
   23522:	d0fa      	beq.n	2351a <__sfvwrite_r+0x1fa>
   23524:	f8d3 b000 	ldr.w	fp, [r3]
   23528:	462a      	mov	r2, r5
   2352a:	210a      	movs	r1, #10
   2352c:	4658      	mov	r0, fp
   2352e:	f000 ff2f 	bl	24390 <memchr>
   23532:	2800      	cmp	r0, #0
   23534:	d065      	beq.n	23602 <__sfvwrite_r+0x2e2>
   23536:	3001      	adds	r0, #1
   23538:	eba0 070b 	sub.w	r7, r0, fp
   2353c:	e7ae      	b.n	2349c <__sfvwrite_r+0x17c>
   2353e:	6922      	ldr	r2, [r4, #16]
   23540:	429a      	cmp	r2, r3
   23542:	d314      	bcc.n	2356e <__sfvwrite_r+0x24e>
   23544:	6962      	ldr	r2, [r4, #20]
   23546:	42ba      	cmp	r2, r7
   23548:	d811      	bhi.n	2356e <__sfvwrite_r+0x24e>
   2354a:	f06f 4300 	mvn.w	r3, #2147483648	@ 0x80000000
   2354e:	6a65      	ldr	r5, [r4, #36]	@ 0x24
   23550:	69e1      	ldr	r1, [r4, #28]
   23552:	4648      	mov	r0, r9
   23554:	42bb      	cmp	r3, r7
   23556:	bf28      	it	cs
   23558:	463b      	movcs	r3, r7
   2355a:	fb93 f3f2 	sdiv	r3, r3, r2
   2355e:	fb02 f303 	mul.w	r3, r2, r3
   23562:	4652      	mov	r2, sl
   23564:	47a8      	blx	r5
   23566:	1e05      	subs	r5, r0, #0
   23568:	ddcb      	ble.n	23502 <__sfvwrite_r+0x1e2>
   2356a:	1b7f      	subs	r7, r7, r5
   2356c:	e77b      	b.n	23466 <__sfvwrite_r+0x146>
   2356e:	42b9      	cmp	r1, r7
   23570:	4618      	mov	r0, r3
   23572:	bf28      	it	cs
   23574:	4639      	movcs	r1, r7
   23576:	460d      	mov	r5, r1
   23578:	4651      	mov	r1, sl
   2357a:	462a      	mov	r2, r5
   2357c:	f000 f94a 	bl	23814 <memmove>
   23580:	68a1      	ldr	r1, [r4, #8]
   23582:	6823      	ldr	r3, [r4, #0]
   23584:	1b49      	subs	r1, r1, r5
   23586:	442b      	add	r3, r5
   23588:	60a1      	str	r1, [r4, #8]
   2358a:	6023      	str	r3, [r4, #0]
   2358c:	2900      	cmp	r1, #0
   2358e:	d1ec      	bne.n	2356a <__sfvwrite_r+0x24a>
   23590:	4621      	mov	r1, r4
   23592:	4648      	mov	r0, r9
   23594:	f000 fed2 	bl	2433c <_fflush_r>
   23598:	2800      	cmp	r0, #0
   2359a:	d0e6      	beq.n	2356a <__sfvwrite_r+0x24a>
   2359c:	e7b1      	b.n	23502 <__sfvwrite_r+0x1e2>
   2359e:	46bb      	mov	fp, r7
   235a0:	463a      	mov	r2, r7
   235a2:	e752      	b.n	2344a <__sfvwrite_r+0x12a>
   235a4:	4659      	mov	r1, fp
   235a6:	9201      	str	r2, [sp, #4]
   235a8:	f000 f934 	bl	23814 <memmove>
   235ac:	9a01      	ldr	r2, [sp, #4]
   235ae:	68a3      	ldr	r3, [r4, #8]
   235b0:	4692      	mov	sl, r2
   235b2:	1a9b      	subs	r3, r3, r2
   235b4:	60a3      	str	r3, [r4, #8]
   235b6:	6823      	ldr	r3, [r4, #0]
   235b8:	4413      	add	r3, r2
   235ba:	6023      	str	r3, [r4, #0]
   235bc:	e788      	b.n	234d0 <__sfvwrite_r+0x1b0>
   235be:	4659      	mov	r1, fp
   235c0:	4652      	mov	r2, sl
   235c2:	f000 f927 	bl	23814 <memmove>
   235c6:	6823      	ldr	r3, [r4, #0]
   235c8:	4621      	mov	r1, r4
   235ca:	4648      	mov	r0, r9
   235cc:	4453      	add	r3, sl
   235ce:	6023      	str	r3, [r4, #0]
   235d0:	f000 feb4 	bl	2433c <_fflush_r>
   235d4:	2800      	cmp	r0, #0
   235d6:	f43f af7b 	beq.w	234d0 <__sfvwrite_r+0x1b0>
   235da:	e792      	b.n	23502 <__sfvwrite_r+0x1e2>
   235dc:	4648      	mov	r0, r9
   235de:	f000 fa83 	bl	23ae8 <_realloc_r>
   235e2:	4603      	mov	r3, r0
   235e4:	2800      	cmp	r0, #0
   235e6:	f47f af26 	bne.w	23436 <__sfvwrite_r+0x116>
   235ea:	6921      	ldr	r1, [r4, #16]
   235ec:	4648      	mov	r0, r9
   235ee:	f000 fc8f 	bl	23f10 <_free_r>
   235f2:	f9b4 300c 	ldrsh.w	r3, [r4, #12]
   235f6:	220c      	movs	r2, #12
   235f8:	f023 0380 	bic.w	r3, r3, #128	@ 0x80
   235fc:	f8c9 2000 	str.w	r2, [r9]
   23600:	e781      	b.n	23506 <__sfvwrite_r+0x1e6>
   23602:	1c6a      	adds	r2, r5, #1
   23604:	4617      	mov	r7, r2
   23606:	e74a      	b.n	2349e <__sfvwrite_r+0x17e>
   23608:	220c      	movs	r2, #12
   2360a:	f9b4 300c 	ldrsh.w	r3, [r4, #12]
   2360e:	f8c9 2000 	str.w	r2, [r9]
   23612:	e778      	b.n	23506 <__sfvwrite_r+0x1e6>
   23614:	7ffffc00 	.word	0x7ffffc00

00023618 <_fwalk_sglue>:
   23618:	e92d 43f8 	stmdb	sp!, {r3, r4, r5, r6, r7, r8, r9, lr}
   2361c:	f04f 0900 	mov.w	r9, #0
   23620:	4607      	mov	r7, r0
   23622:	4688      	mov	r8, r1
   23624:	4616      	mov	r6, r2
   23626:	e9d6 5401 	ldrd	r5, r4, [r6, #4]
   2362a:	3d01      	subs	r5, #1
   2362c:	d40f      	bmi.n	2364e <_fwalk_sglue+0x36>
   2362e:	89a3      	ldrh	r3, [r4, #12]
   23630:	2b01      	cmp	r3, #1
   23632:	d908      	bls.n	23646 <_fwalk_sglue+0x2e>
   23634:	f9b4 300e 	ldrsh.w	r3, [r4, #14]
   23638:	4621      	mov	r1, r4
   2363a:	4638      	mov	r0, r7
   2363c:	3301      	adds	r3, #1
   2363e:	d002      	beq.n	23646 <_fwalk_sglue+0x2e>
   23640:	47c0      	blx	r8
   23642:	ea49 0900 	orr.w	r9, r9, r0
   23646:	3d01      	subs	r5, #1
   23648:	3468      	adds	r4, #104	@ 0x68
   2364a:	1c6b      	adds	r3, r5, #1
   2364c:	d1ef      	bne.n	2362e <_fwalk_sglue+0x16>
   2364e:	6836      	ldr	r6, [r6, #0]
   23650:	2e00      	cmp	r6, #0
   23652:	d1e8      	bne.n	23626 <_fwalk_sglue+0xe>
   23654:	4648      	mov	r0, r9
   23656:	e8bd 83f8 	ldmia.w	sp!, {r3, r4, r5, r6, r7, r8, r9, pc}
   2365a:	bf00      	nop

0002365c <__swsetup_r>:
   2365c:	b538      	push	{r3, r4, r5, lr}
   2365e:	4b2f      	ldr	r3, [pc, #188]	@ (2371c <__swsetup_r+0xc0>)
   23660:	4605      	mov	r5, r0
   23662:	460c      	mov	r4, r1
   23664:	681b      	ldr	r3, [r3, #0]
   23666:	b113      	cbz	r3, 2366e <__swsetup_r+0x12>
   23668:	6b5a      	ldr	r2, [r3, #52]	@ 0x34
   2366a:	2a00      	cmp	r2, #0
   2366c:	d045      	beq.n	236fa <__swsetup_r+0x9e>
   2366e:	f9b4 300c 	ldrsh.w	r3, [r4, #12]
   23672:	0718      	lsls	r0, r3, #28
   23674:	d516      	bpl.n	236a4 <__swsetup_r+0x48>
   23676:	6922      	ldr	r2, [r4, #16]
   23678:	b1f2      	cbz	r2, 236b8 <__swsetup_r+0x5c>
   2367a:	f013 0101 	ands.w	r1, r3, #1
   2367e:	d007      	beq.n	23690 <__swsetup_r+0x34>
   23680:	6961      	ldr	r1, [r4, #20]
   23682:	2000      	movs	r0, #0
   23684:	4249      	negs	r1, r1
   23686:	60a0      	str	r0, [r4, #8]
   23688:	61a1      	str	r1, [r4, #24]
   2368a:	b13a      	cbz	r2, 2369c <__swsetup_r+0x40>
   2368c:	2000      	movs	r0, #0
   2368e:	bd38      	pop	{r3, r4, r5, pc}
   23690:	0798      	lsls	r0, r3, #30
   23692:	bf58      	it	pl
   23694:	6961      	ldrpl	r1, [r4, #20]
   23696:	60a1      	str	r1, [r4, #8]
   23698:	2a00      	cmp	r2, #0
   2369a:	d1f7      	bne.n	2368c <__swsetup_r+0x30>
   2369c:	0619      	lsls	r1, r3, #24
   2369e:	d438      	bmi.n	23712 <__swsetup_r+0xb6>
   236a0:	4610      	mov	r0, r2
   236a2:	bd38      	pop	{r3, r4, r5, pc}
   236a4:	06d9      	lsls	r1, r3, #27
   236a6:	d52c      	bpl.n	23702 <__swsetup_r+0xa6>
   236a8:	075a      	lsls	r2, r3, #29
   236aa:	d412      	bmi.n	236d2 <__swsetup_r+0x76>
   236ac:	6922      	ldr	r2, [r4, #16]
   236ae:	f043 0308 	orr.w	r3, r3, #8
   236b2:	81a3      	strh	r3, [r4, #12]
   236b4:	2a00      	cmp	r2, #0
   236b6:	d1e0      	bne.n	2367a <__swsetup_r+0x1e>
   236b8:	f403 7120 	and.w	r1, r3, #640	@ 0x280
   236bc:	f5b1 7f00 	cmp.w	r1, #512	@ 0x200
   236c0:	d0db      	beq.n	2367a <__swsetup_r+0x1e>
   236c2:	4621      	mov	r1, r4
   236c4:	4628      	mov	r0, r5
   236c6:	f000 f98d 	bl	239e4 <__smakebuf_r>
   236ca:	f9b4 300c 	ldrsh.w	r3, [r4, #12]
   236ce:	6922      	ldr	r2, [r4, #16]
   236d0:	e7d3      	b.n	2367a <__swsetup_r+0x1e>
   236d2:	6b21      	ldr	r1, [r4, #48]	@ 0x30
   236d4:	b151      	cbz	r1, 236ec <__swsetup_r+0x90>
   236d6:	f104 0240 	add.w	r2, r4, #64	@ 0x40
   236da:	4291      	cmp	r1, r2
   236dc:	d004      	beq.n	236e8 <__swsetup_r+0x8c>
   236de:	4628      	mov	r0, r5
   236e0:	f000 fc16 	bl	23f10 <_free_r>
   236e4:	f9b4 300c 	ldrsh.w	r3, [r4, #12]
   236e8:	2200      	movs	r2, #0
   236ea:	6322      	str	r2, [r4, #48]	@ 0x30
   236ec:	2100      	movs	r1, #0
   236ee:	6922      	ldr	r2, [r4, #16]
   236f0:	f023 0324 	bic.w	r3, r3, #36	@ 0x24
   236f4:	e9c4 2100 	strd	r2, r1, [r4]
   236f8:	e7d9      	b.n	236ae <__swsetup_r+0x52>
   236fa:	4618      	mov	r0, r3
   236fc:	f7ff fa10 	bl	22b20 <__sinit>
   23700:	e7b5      	b.n	2366e <__swsetup_r+0x12>
   23702:	2209      	movs	r2, #9
   23704:	f043 0340 	orr.w	r3, r3, #64	@ 0x40
   23708:	602a      	str	r2, [r5, #0]
   2370a:	81a3      	strh	r3, [r4, #12]
   2370c:	f04f 30ff 	mov.w	r0, #4294967295	@ 0xffffffff
   23710:	bd38      	pop	{r3, r4, r5, pc}
   23712:	f043 0340 	orr.w	r3, r3, #64	@ 0x40
   23716:	81a3      	strh	r3, [r4, #12]
   23718:	e7f8      	b.n	2370c <__swsetup_r+0xb0>
   2371a:	bf00      	nop
   2371c:	20010448 	.word	0x20010448

00023720 <__malloc_lock>:
   23720:	4801      	ldr	r0, [pc, #4]	@ (23728 <__malloc_lock+0x8>)
   23722:	f000 b94d 	b.w	239c0 <__retarget_lock_acquire_recursive>
   23726:	bf00      	nop
   23728:	200109ec 	.word	0x200109ec

0002372c <__malloc_unlock>:
   2372c:	4801      	ldr	r0, [pc, #4]	@ (23734 <__malloc_unlock+0x8>)
   2372e:	f000 b949 	b.w	239c4 <__retarget_lock_release_recursive>
   23732:	bf00      	nop
   23734:	200109ec 	.word	0x200109ec

00023738 <calloc>:
   23738:	4b02      	ldr	r3, [pc, #8]	@ (23744 <calloc+0xc>)
   2373a:	460a      	mov	r2, r1
   2373c:	4601      	mov	r1, r0
   2373e:	6818      	ldr	r0, [r3, #0]
   23740:	f000 b830 	b.w	237a4 <_calloc_r>
   23744:	20010448 	.word	0x20010448

00023748 <memcmp>:
   23748:	2a03      	cmp	r2, #3
   2374a:	b430      	push	{r4, r5}
   2374c:	d915      	bls.n	2377a <memcmp+0x32>
   2374e:	ea41 0400 	orr.w	r4, r1, r0
   23752:	4684      	mov	ip, r0
   23754:	460b      	mov	r3, r1
   23756:	07a4      	lsls	r4, r4, #30
   23758:	d004      	beq.n	23764 <memcmp+0x1c>
   2375a:	1e54      	subs	r4, r2, #1
   2375c:	e00f      	b.n	2377e <memcmp+0x36>
   2375e:	3a04      	subs	r2, #4
   23760:	2a03      	cmp	r2, #3
   23762:	d908      	bls.n	23776 <memcmp+0x2e>
   23764:	4619      	mov	r1, r3
   23766:	4660      	mov	r0, ip
   23768:	f853 4b04 	ldr.w	r4, [r3], #4
   2376c:	f85c 5b04 	ldr.w	r5, [ip], #4
   23770:	42a5      	cmp	r5, r4
   23772:	d0f4      	beq.n	2375e <memcmp+0x16>
   23774:	e7f1      	b.n	2375a <memcmp+0x12>
   23776:	4660      	mov	r0, ip
   23778:	4619      	mov	r1, r3
   2377a:	1e54      	subs	r4, r2, #1
   2377c:	b17a      	cbz	r2, 2379e <memcmp+0x56>
   2377e:	1e43      	subs	r3, r0, #1
   23780:	3901      	subs	r1, #1
   23782:	1902      	adds	r2, r0, r4
   23784:	e001      	b.n	2378a <memcmp+0x42>
   23786:	429a      	cmp	r2, r3
   23788:	d009      	beq.n	2379e <memcmp+0x56>
   2378a:	f813 0f01 	ldrb.w	r0, [r3, #1]!
   2378e:	f811 cf01 	ldrb.w	ip, [r1, #1]!
   23792:	4560      	cmp	r0, ip
   23794:	d0f7      	beq.n	23786 <memcmp+0x3e>
   23796:	eba0 000c 	sub.w	r0, r0, ip
   2379a:	bc30      	pop	{r4, r5}
   2379c:	4770      	bx	lr
   2379e:	2000      	movs	r0, #0
   237a0:	bc30      	pop	{r4, r5}
   237a2:	4770      	bx	lr

000237a4 <_calloc_r>:
   237a4:	b538      	push	{r3, r4, r5, lr}
   237a6:	fba1 1402 	umull	r1, r4, r1, r2
   237aa:	bb34      	cbnz	r4, 237fa <_calloc_r+0x56>
   237ac:	f7ff fa84 	bl	22cb8 <_malloc_r>
   237b0:	4605      	mov	r5, r0
   237b2:	b330      	cbz	r0, 23802 <_calloc_r+0x5e>
   237b4:	f850 2c04 	ldr.w	r2, [r0, #-4]
   237b8:	f022 0203 	bic.w	r2, r2, #3
   237bc:	3a04      	subs	r2, #4
   237be:	2a24      	cmp	r2, #36	@ 0x24
   237c0:	d80c      	bhi.n	237dc <_calloc_r+0x38>
   237c2:	2a13      	cmp	r2, #19
   237c4:	d90f      	bls.n	237e6 <_calloc_r+0x42>
   237c6:	2a1b      	cmp	r2, #27
   237c8:	e9c0 4400 	strd	r4, r4, [r0]
   237cc:	d912      	bls.n	237f4 <_calloc_r+0x50>
   237ce:	2a24      	cmp	r2, #36	@ 0x24
   237d0:	e9c0 4402 	strd	r4, r4, [r0, #8]
   237d4:	d018      	beq.n	23808 <_calloc_r+0x64>
   237d6:	f100 0210 	add.w	r2, r0, #16
   237da:	e005      	b.n	237e8 <_calloc_r+0x44>
   237dc:	4621      	mov	r1, r4
   237de:	f000 f899 	bl	23914 <memset>
   237e2:	4628      	mov	r0, r5
   237e4:	bd38      	pop	{r3, r4, r5, pc}
   237e6:	4602      	mov	r2, r0
   237e8:	2300      	movs	r3, #0
   237ea:	4628      	mov	r0, r5
   237ec:	e9c2 3300 	strd	r3, r3, [r2]
   237f0:	6093      	str	r3, [r2, #8]
   237f2:	bd38      	pop	{r3, r4, r5, pc}
   237f4:	f100 0208 	add.w	r2, r0, #8
   237f8:	e7f6      	b.n	237e8 <_calloc_r+0x44>
   237fa:	f7ff fd4f 	bl	2329c <__errno>
   237fe:	230c      	movs	r3, #12
   23800:	6003      	str	r3, [r0, #0]
   23802:	2500      	movs	r5, #0
   23804:	4628      	mov	r0, r5
   23806:	bd38      	pop	{r3, r4, r5, pc}
   23808:	f100 0218 	add.w	r2, r0, #24
   2380c:	e9c0 4404 	strd	r4, r4, [r0, #16]
   23810:	e7ea      	b.n	237e8 <_calloc_r+0x44>
   23812:	bf00      	nop

00023814 <memmove>:
   23814:	4288      	cmp	r0, r1
   23816:	d90e      	bls.n	23836 <memmove+0x22>
   23818:	188b      	adds	r3, r1, r2
   2381a:	4283      	cmp	r3, r0
   2381c:	d90b      	bls.n	23836 <memmove+0x22>
   2381e:	eb00 0c02 	add.w	ip, r0, r2
   23822:	2a00      	cmp	r2, #0
   23824:	d06e      	beq.n	23904 <memmove+0xf0>
   23826:	4662      	mov	r2, ip
   23828:	f813 cd01 	ldrb.w	ip, [r3, #-1]!
   2382c:	4299      	cmp	r1, r3
   2382e:	f802 cd01 	strb.w	ip, [r2, #-1]!
   23832:	d1f9      	bne.n	23828 <memmove+0x14>
   23834:	4770      	bx	lr
   23836:	2a0f      	cmp	r2, #15
   23838:	d80f      	bhi.n	2385a <memmove+0x46>
   2383a:	4603      	mov	r3, r0
   2383c:	f102 3cff 	add.w	ip, r2, #4294967295	@ 0xffffffff
   23840:	2a00      	cmp	r2, #0
   23842:	d05f      	beq.n	23904 <memmove+0xf0>
   23844:	f10c 0c01 	add.w	ip, ip, #1
   23848:	3b01      	subs	r3, #1
   2384a:	448c      	add	ip, r1
   2384c:	f811 2b01 	ldrb.w	r2, [r1], #1
   23850:	4561      	cmp	r1, ip
   23852:	f803 2f01 	strb.w	r2, [r3, #1]!
   23856:	d1f9      	bne.n	2384c <memmove+0x38>
   23858:	4770      	bx	lr
   2385a:	ea40 0301 	orr.w	r3, r0, r1
   2385e:	079b      	lsls	r3, r3, #30
   23860:	d151      	bne.n	23906 <memmove+0xf2>
   23862:	f1a2 0310 	sub.w	r3, r2, #16
   23866:	f101 0c20 	add.w	ip, r1, #32
   2386a:	b570      	push	{r4, r5, r6, lr}
   2386c:	f023 050f 	bic.w	r5, r3, #15
   23870:	f101 0e10 	add.w	lr, r1, #16
   23874:	f100 0410 	add.w	r4, r0, #16
   23878:	091b      	lsrs	r3, r3, #4
   2387a:	44ac      	add	ip, r5
   2387c:	f85e 5c10 	ldr.w	r5, [lr, #-16]
   23880:	f10e 0e10 	add.w	lr, lr, #16
   23884:	3410      	adds	r4, #16
   23886:	f844 5c20 	str.w	r5, [r4, #-32]
   2388a:	f85e 5c1c 	ldr.w	r5, [lr, #-28]
   2388e:	f844 5c1c 	str.w	r5, [r4, #-28]
   23892:	f85e 5c18 	ldr.w	r5, [lr, #-24]
   23896:	f844 5c18 	str.w	r5, [r4, #-24]
   2389a:	f85e 5c14 	ldr.w	r5, [lr, #-20]
   2389e:	45e6      	cmp	lr, ip
   238a0:	f844 5c14 	str.w	r5, [r4, #-20]
   238a4:	d1ea      	bne.n	2387c <memmove+0x68>
   238a6:	3301      	adds	r3, #1
   238a8:	f012 0f0c 	tst.w	r2, #12
   238ac:	f002 0c0f 	and.w	ip, r2, #15
   238b0:	eb01 1103 	add.w	r1, r1, r3, lsl #4
   238b4:	eb00 1303 	add.w	r3, r0, r3, lsl #4
   238b8:	d029      	beq.n	2390e <memmove+0xfa>
   238ba:	f1ac 0c04 	sub.w	ip, ip, #4
   238be:	1f1c      	subs	r4, r3, #4
   238c0:	468e      	mov	lr, r1
   238c2:	f02c 0603 	bic.w	r6, ip, #3
   238c6:	ea4f 0c9c 	mov.w	ip, ip, lsr #2
   238ca:	441e      	add	r6, r3
   238cc:	f85e 5b04 	ldr.w	r5, [lr], #4
   238d0:	f844 5f04 	str.w	r5, [r4, #4]!
   238d4:	42b4      	cmp	r4, r6
   238d6:	d1f9      	bne.n	238cc <memmove+0xb8>
   238d8:	f10c 0401 	add.w	r4, ip, #1
   238dc:	f002 0203 	and.w	r2, r2, #3
   238e0:	eb03 0384 	add.w	r3, r3, r4, lsl #2
   238e4:	eb01 0184 	add.w	r1, r1, r4, lsl #2
   238e8:	f102 3cff 	add.w	ip, r2, #4294967295	@ 0xffffffff
   238ec:	b14a      	cbz	r2, 23902 <memmove+0xee>
   238ee:	f10c 0c01 	add.w	ip, ip, #1
   238f2:	3b01      	subs	r3, #1
   238f4:	448c      	add	ip, r1
   238f6:	f811 2b01 	ldrb.w	r2, [r1], #1
   238fa:	4561      	cmp	r1, ip
   238fc:	f803 2f01 	strb.w	r2, [r3, #1]!
   23900:	d1f9      	bne.n	238f6 <memmove+0xe2>
   23902:	bd70      	pop	{r4, r5, r6, pc}
   23904:	4770      	bx	lr
   23906:	f102 3cff 	add.w	ip, r2, #4294967295	@ 0xffffffff
   2390a:	4603      	mov	r3, r0
   2390c:	e79a      	b.n	23844 <memmove+0x30>
   2390e:	4662      	mov	r2, ip
   23910:	e7ea      	b.n	238e8 <memmove+0xd4>
   23912:	bf00      	nop

00023914 <memset>:
   23914:	b570      	push	{r4, r5, r6, lr}
   23916:	0786      	lsls	r6, r0, #30
   23918:	d047      	beq.n	239aa <memset+0x96>
   2391a:	1e54      	subs	r4, r2, #1
   2391c:	2a00      	cmp	r2, #0
   2391e:	d03e      	beq.n	2399e <memset+0x8a>
   23920:	b2ca      	uxtb	r2, r1
   23922:	4603      	mov	r3, r0
   23924:	e001      	b.n	2392a <memset+0x16>
   23926:	3c01      	subs	r4, #1
   23928:	d339      	bcc.n	2399e <memset+0x8a>
   2392a:	f803 2b01 	strb.w	r2, [r3], #1
   2392e:	079d      	lsls	r5, r3, #30
   23930:	d1f9      	bne.n	23926 <memset+0x12>
   23932:	2c03      	cmp	r4, #3
   23934:	d92c      	bls.n	23990 <memset+0x7c>
   23936:	b2cd      	uxtb	r5, r1
   23938:	2c0f      	cmp	r4, #15
   2393a:	eb05 2505 	add.w	r5, r5, r5, lsl #8
   2393e:	eb05 4505 	add.w	r5, r5, r5, lsl #16
   23942:	d935      	bls.n	239b0 <memset+0x9c>
   23944:	f1a4 0c10 	sub.w	ip, r4, #16
   23948:	f103 0e10 	add.w	lr, r3, #16
   2394c:	461a      	mov	r2, r3
   2394e:	f02c 060f 	bic.w	r6, ip, #15
   23952:	ea4f 1c1c 	mov.w	ip, ip, lsr #4
   23956:	44b6      	add	lr, r6
   23958:	e9c2 5500 	strd	r5, r5, [r2]
   2395c:	e9c2 5502 	strd	r5, r5, [r2, #8]
   23960:	3210      	adds	r2, #16
   23962:	4572      	cmp	r2, lr
   23964:	d1f8      	bne.n	23958 <memset+0x44>
   23966:	f10c 0201 	add.w	r2, ip, #1
   2396a:	f014 0f0c 	tst.w	r4, #12
   2396e:	f004 0c0f 	and.w	ip, r4, #15
   23972:	eb03 1202 	add.w	r2, r3, r2, lsl #4
   23976:	d013      	beq.n	239a0 <memset+0x8c>
   23978:	f1ac 0304 	sub.w	r3, ip, #4
   2397c:	f023 0303 	bic.w	r3, r3, #3
   23980:	3304      	adds	r3, #4
   23982:	4413      	add	r3, r2
   23984:	f842 5b04 	str.w	r5, [r2], #4
   23988:	4293      	cmp	r3, r2
   2398a:	d1fb      	bne.n	23984 <memset+0x70>
   2398c:	f00c 0403 	and.w	r4, ip, #3
   23990:	b12c      	cbz	r4, 2399e <memset+0x8a>
   23992:	b2c9      	uxtb	r1, r1
   23994:	441c      	add	r4, r3
   23996:	f803 1b01 	strb.w	r1, [r3], #1
   2399a:	42a3      	cmp	r3, r4
   2399c:	d1fb      	bne.n	23996 <memset+0x82>
   2399e:	bd70      	pop	{r4, r5, r6, pc}
   239a0:	4664      	mov	r4, ip
   239a2:	4613      	mov	r3, r2
   239a4:	2c00      	cmp	r4, #0
   239a6:	d1f4      	bne.n	23992 <memset+0x7e>
   239a8:	e7f9      	b.n	2399e <memset+0x8a>
   239aa:	4603      	mov	r3, r0
   239ac:	4614      	mov	r4, r2
   239ae:	e7c0      	b.n	23932 <memset+0x1e>
   239b0:	461a      	mov	r2, r3
   239b2:	46a4      	mov	ip, r4
   239b4:	e7e0      	b.n	23978 <memset+0x64>
